

Microchip MPLAB XC8 Assembler V2.32 build 20210201212658 
                                                                                               Sun Jul 18 00:34:58 2021

Microchip MPLAB XC8 C Compiler v2.32 (Free license) build 20210201212658 Og1 
     1                           	processor	18F4520
     2                           	fnconf	rparam,??,?,0
     3                           	pagewidth 120
     4                           	opt	flic
     5                           	psect	idataCOMRAM,global,class=CODE,delta=1,noexec
     6                           	psect	cinit,global,reloc=2,class=CODE,delta=1
     7                           	psect	bssCOMRAM,global,class=COMRAM,space=1,delta=1,lowdata,noexec
     8                           	psect	dataCOMRAM,global,class=COMRAM,space=1,delta=1,lowdata,noexec
     9                           	psect	cstackCOMRAM,global,class=COMRAM,space=1,delta=1,lowdata,noexec
    10                           	psect	text0,global,reloc=2,class=CODE,delta=1
    11                           	psect	text1,global,reloc=2,class=CODE,delta=1
    12                           	psect	text2,global,reloc=2,class=CODE,delta=1
    13                           	psect	text3,global,reloc=2,class=CODE,delta=1
    14                           	psect	text4,global,reloc=2,class=CODE,delta=1,group=1
    15                           	psect	text5,global,reloc=2,class=CODE,delta=1
    16                           	psect	text6,global,reloc=2,class=CODE,delta=1
    17                           	psect	intcode,global,reloc=2,class=CODE,delta=1
    18                           	psect	intcode_body,global,reloc=2,class=CODE,delta=1
    19                           	psect	text8,global,reloc=2,class=CODE,delta=1
    20                           	psect	text9,global,reloc=2,class=CODE,delta=1
    21                           	psect	text10,global,reloc=2,class=CODE,delta=1
    22                           	psect	intsave_regs,global,class=BIGRAM,space=1,delta=1,noexec
    23                           	psect	text11,global,reloc=2,class=CODE,delta=1
    24                           	psect	rparam,global,class=COMRAM,space=1,delta=1,noexec
    25                           	psect	temp,global,ovrld,common,class=COMRAM,space=1,delta=1
    26                           	psect	idloc,global,abs,ovrld,class=IDLOC,space=5,delta=1,noexec
    27                           	psect	config,global,abs,ovrld,class=CONFIG,space=4,delta=1,noexec
    28  0000                     
    29                           ; Version 2.20
    30                           ; Generated 12/02/2020 GMT
    31                           ; 
    32                           ; Copyright © 2020, Microchip Technology Inc. and its subsidiaries ("Microchip")
    33                           ; All rights reserved.
    34                           ; 
    35                           ; This software is developed by Microchip Technology Inc. and its subsidiaries ("Microch
      +                          ip").
    36                           ; 
    37                           ; Redistribution and use in source and binary forms, with or without modification, are
    38                           ; permitted provided that the following conditions are met:
    39                           ; 
    40                           ;     1. Redistributions of source code must retain the above copyright notice, this lis
      +                          t of
    41                           ;        conditions and the following disclaimer.
    42                           ; 
    43                           ;     2. Redistributions in binary form must reproduce the above copyright notice, this 
      +                          list
    44                           ;        of conditions and the following disclaimer in the documentation and/or other
    45                           ;        materials provided with the distribution.
    46                           ; 
    47                           ;     3. Microchip's name may not be used to endorse or promote products derived from th
      +                          is
    48                           ;        software without specific prior written permission.
    49                           ; 
    50                           ; THIS SOFTWARE IS PROVIDED BY MICROCHIP "AS IS" AND ANY EXPRESS OR IMPLIED WARRANTIES,
    51                           ; INCLUDING, BUT NOT LIMITED TO, THE IMPLIED WARRANTIES OF MERCHANTABILITY AND FITNESS F
      +                          OR
    52                           ; PURPOSE ARE DISCLAIMED.  IN NO EVENT SHALL MICROCHIP BE LIABLE FOR ANY DIRECT, INDIREC
      +                          T,
    53                           ; INCIDENTAL, SPECIAL, EXEMPLARY, OR CONSEQUENTIAL DAMAGES (INCLUDING BUT NOT LIMITED TO
    54                           ; PROCUREMENT OF SUBSTITUTE GOODS OR SERVICES; LOSS OF USE, DATA OR PROFITS; OR BUSINESS
    55                           ; INTERRUPTION) HOWSOEVER CAUSED AND ON ANY THEORY OF LIABILITY, WHETHER IN CONTRACT, ST
      +                          RICT
    56                           ; LIABILITY, OR TORT (INCLUDING NEGLIGENCE OR OTHERWISE) ARISING IN ANY WAY OUT OF THE U
      +                          SE OF
    57                           ; THIS SOFTWARE, EVEN IF ADVISED OF THE POSSIBILITY OF SUCH DAMAGE.
    58                           ; 
    59                           ; 
    60                           ; Code-generator required, PIC18F4520 Definitions
    61                           ; 
    62                           ; SFR Addresses
    63  0000                     
    64                           	psect	idataCOMRAM
    65  000722                     __pidataCOMRAM:
    66                           	callstack 0
    67                           
    68                           ;initializer for _serialConfig
    69  000722  00                 	db	0
    70  000723  00                 	db	0
    71  000724  00                 	db	0
    72  000725  2580               	dw	9600
    73  000727  0000               	dw	0
    74                           
    75                           ;initializer for _timerConfig
    76  000729  00                 	db	0
    77  00072A  00                 	db	0
    78  00072B  00                 	db	0
    79  00072C  00                 	db	0
    80  00072D  02                 	db	2
    81  0000                     _TMR0	set	4054
    82  0000                     _INTCON2bits	set	4081
    83  0000                     _T0CONbits	set	4053
    84  0000                     _RCREG	set	4014
    85  0000                     _TXREG	set	4013
    86  0000                     _PIE1bits	set	3997
    87  0000                     _RCSTAbits	set	4011
    88  0000                     _SPBRG	set	4015
    89  0000                     _TXSTAbits	set	4012
    90  0000                     _BAUDCONbits	set	4024
    91  0000                     _RCONbits	set	4048
    92  0000                     _TRISB	set	3987
    93  0000                     _PIR1bits	set	3998
    94  0000                     _INTCONbits	set	4082
    95  0000                     _PORTB	set	3969
    96  0000                     _LATB	set	3978
    97  0000                     _TRMT	set	32097
    98                           
    99                           ; #config settings
   100                           
   101                           	psect	cinit
   102  00069E                     __pcinit:
   103                           	callstack 0
   104  00069E                     start_initialization:
   105                           	callstack 0
   106  00069E                     __initialization:
   107                           	callstack 0
   108                           
   109                           ; Initialize objects allocated to COMRAM (12 bytes)
   110                           ; load TBLPTR registers with __pidataCOMRAM
   111  00069E  0E22               	movlw	low __pidataCOMRAM
   112  0006A0  6EF6               	movwf	tblptrl,c
   113  0006A2  0E07               	movlw	high __pidataCOMRAM
   114  0006A4  6EF7               	movwf	tblptrh,c
   115  0006A6  0E00               	movlw	low (__pidataCOMRAM shr (0+16))
   116  0006A8  6EF8               	movwf	tblptru,c
   117  0006AA  EE00  F057         	lfsr	0,__pdataCOMRAM
   118  0006AE  EE10 F00C          	lfsr	1,12
   119  0006B2                     copy_data0:
   120  0006B2  0009               	tblrd		*+
   121  0006B4  CFF5 FFEE          	movff	tablat,postinc0
   122  0006B8  50E5               	movf	postdec1,w,c
   123  0006BA  50E1               	movf	fsr1l,w,c
   124  0006BC  E1FA               	bnz	copy_data0
   125                           
   126                           ; Clear objects allocated to COMRAM (35 bytes)
   127  0006BE  EE00  F034         	lfsr	0,__pbssCOMRAM
   128  0006C2  0E23               	movlw	35
   129  0006C4                     clear_0:
   130  0006C4  6AEE               	clrf	postinc0,c
   131  0006C6  06E8               	decf	wreg,f,c
   132  0006C8  E1FD               	bnz	clear_0
   133  0006CA                     end_of_initialization:
   134                           	callstack 0
   135  0006CA                     __end_of__initialization:
   136                           	callstack 0
   137  0006CA  9063               	bcf	int$flags,0,c	;clear compiler interrupt flag (level 1)
   138  0006CC  9263               	bcf	int$flags,1,c	;clear compiler interrupt flag (level 2)
   139  0006CE  0E00               	movlw	low (__Lmediumconst shr (0+16))
   140  0006D0  6EF8               	movwf	tblptru,c
   141  0006D2  0100               	movlb	0
   142  0006D4  EF31  F003         	goto	_main	;jump to C main() function
   143                           
   144                           	psect	bssCOMRAM
   145  000034                     __pbssCOMRAM:
   146                           	callstack 0
   147  000034                     	ds	8
   148  00003C                     _last_time_blink_led_1:
   149                           	callstack 0
   150  00003C                     	ds	8
   151  000044                     _last_time_blink_led_0:
   152                           	callstack 0
   153  000044                     	ds	8
   154  00004C                     _tickHook_func_prt:
   155                           	callstack 0
   156  00004C                     	ds	2
   157  00004E                     _serial_byte_received:
   158                           	callstack 0
   159  00004E                     	ds	1
   160  00004F                     _global_timer_value@timer$F182:
   161                           	callstack 0
   162  00004F                     	ds	8
   163                           
   164                           	psect	dataCOMRAM
   165  000057                     __pdataCOMRAM:
   166                           	callstack 0
   167  000057                     _serialConfig:
   168                           	callstack 0
   169  000057                     	ds	7
   170  00005E                     _timerConfig:
   171                           	callstack 0
   172  00005E                     	ds	5
   173                           
   174                           	psect	cstackCOMRAM
   175  000001                     __pcstackCOMRAM:
   176                           	callstack 0
   177  000001                     tickHook_func@timer_value:
   178                           	callstack 0
   179                           
   180                           ; 2 bytes @ 0x0
   181  000001                     	ds	2
   182  000003                     ??_tickHook_func:
   183                           
   184                           ; 1 bytes @ 0x2
   185  000003                     	ds	16
   186  000013                     tickHook_Execute@global_timer_value:
   187                           	callstack 0
   188                           
   189                           ; 2 bytes @ 0x12
   190  000013                     	ds	2
   191  000015                     ??_TASK_Manager:
   192                           
   193                           ; 1 bytes @ 0x14
   194  000015                     	ds	4
   195  000019                     ?___aldiv:
   196                           	callstack 0
   197  000019                     Peripheral_Controller@args:
   198                           	callstack 0
   199  000019                     Timer0_Config@timerConfig:
   200                           	callstack 0
   201  000019                     Timer0_SetTickHook@tickFunc:
   202                           	callstack 0
   203  000019                     ___aldiv@dividend:
   204                           	callstack 0
   205                           
   206                           ; 4 bytes @ 0x18
   207  000019                     	ds	2
   208  00001B                     ??_Timer0_Config:
   209  00001B                     
   210                           ; 1 bytes @ 0x1A
   211  00001B                     	ds	2
   212  00001D                     ___aldiv@divisor:
   213                           	callstack 0
   214                           
   215                           ; 4 bytes @ 0x1C
   216  00001D                     	ds	4
   217  000021                     ___aldiv@counter:
   218                           	callstack 0
   219                           
   220                           ; 1 bytes @ 0x20
   221  000021                     	ds	1
   222  000022                     ___aldiv@sign:
   223                           	callstack 0
   224                           
   225                           ; 1 bytes @ 0x21
   226  000022                     	ds	1
   227  000023                     ___aldiv@quotient:
   228                           	callstack 0
   229                           
   230                           ; 4 bytes @ 0x22
   231  000023                     	ds	4
   232  000027                     Serial_1_Config@serialConfig:
   233                           	callstack 0
   234                           
   235                           ; 2 bytes @ 0x26
   236  000027                     	ds	2
   237  000029                     ??_Serial_1_Config:
   238                           
   239                           ; 1 bytes @ 0x28
   240  000029                     	ds	4
   241  00002D                     Serial_1_Config@error_8LOW:
   242                           	callstack 0
   243                           
   244                           ; 1 bytes @ 0x2C
   245  00002D                     	ds	1
   246  00002E                     Serial_1_Config@error_16HIGH:
   247                           	callstack 0
   248                           
   249                           ; 1 bytes @ 0x2D
   250  00002E                     	ds	1
   251  00002F                     Serial_1_Config@brg8LOW:
   252                           	callstack 0
   253                           
   254                           ; 1 bytes @ 0x2E
   255  00002F                     	ds	1
   256  000030                     Serial_1_Config@brg8HIGH:
   257                           	callstack 0
   258                           
   259                           ; 1 bytes @ 0x2F
   260  000030                     	ds	1
   261  000031                     Serial_1_Config@brg16HIGH:
   262                           	callstack 0
   263                           
   264                           ; 1 bytes @ 0x30
   265  000031                     	ds	1
   266  000032                     Serial_1_Config@error_8HIGH:
   267                           	callstack 0
   268                           
   269                           ; 1 bytes @ 0x31
   270  000032                     	ds	1
   271  000033                     Serial_1_Config@error_min:
   272                           	callstack 0
   273                           
   274                           ; 1 bytes @ 0x32
   275  000033                     	ds	1
   276  000034                     
   277                           ; 1 bytes @ 0x33
   278 ;;
   279 ;;Main: autosize = 0, tempsize = 0, incstack = 0, save=0
   280 ;;
   281 ;; *************** function _main *****************
   282 ;; Defined at:
   283 ;;		line 75 in file "src/main.c"
   284 ;; Parameters:    Size  Location     Type
   285 ;;		None
   286 ;; Auto vars:     Size  Location     Type
   287 ;;		None
   288 ;; Return value:  Size  Location     Type
   289 ;;                  1    wreg      void 
   290 ;; Registers used:
   291 ;;		wreg, fsr2l, fsr2h, status,2, status,0, prodl, prodh, cstack
   292 ;; Tracked objects:
   293 ;;		On entry : 0/0
   294 ;;		On exit  : 0/0
   295 ;;		Unchanged: 0/0
   296 ;; Data sizes:     COMRAM   BANK0   BANK1   BANK2   BANK3   BANK4   BANK5
   297 ;;      Params:         0       0       0       0       0       0       0
   298 ;;      Locals:         0       0       0       0       0       0       0
   299 ;;      Temps:          0       0       0       0       0       0       0
   300 ;;      Totals:         0       0       0       0       0       0       0
   301 ;;Total ram usage:        0 bytes
   302 ;; Hardware stack levels required when called: 5
   303 ;; This function calls:
   304 ;;		_Interrupt_GlobalEnable
   305 ;;		_Peripheral_Controller
   306 ;;		_Serial_1_Config
   307 ;;		_Timer0_Config
   308 ;;		_Timer0_SetTickHook
   309 ;; This function is called by:
   310 ;;		Startup code after reset
   311 ;; This function uses a non-reentrant model
   312 ;;
   313                           
   314                           	psect	text0
   315  000662                     __ptext0:
   316                           	callstack 0
   317  000662                     _main:
   318                           	callstack 26
   319  000662                     
   320                           ;src/main.c: 77:     Peripheral_Controller(((void*)0));
   321  000662  0E00               	movlw	0
   322  000664  6E19               	movwf	Peripheral_Controller@args^0,c
   323  000666  0E00               	movlw	0
   324  000668  6E1A               	movwf	(Peripheral_Controller@args+1)^0,c
   325  00066A  EC6C  F003         	call	_Peripheral_Controller	;wreg free
   326  00066E                     
   327                           ;src/main.c: 78:     Interrupt_GlobalEnable();
   328  00066E  EC9C  F003         	call	_Interrupt_GlobalEnable	;wreg free
   329  000672                     
   330                           ;src/main.c: 79:     Serial_1_Config(&serialConfig);
   331  000672  0E57               	movlw	low _serialConfig
   332  000674  6E27               	movwf	Serial_1_Config@serialConfig^0,c
   333  000676  0E00               	movlw	high _serialConfig
   334  000678  6E28               	movwf	(Serial_1_Config@serialConfig+1)^0,c
   335  00067A  EC09  F000         	call	_Serial_1_Config	;wreg free
   336  00067E                     
   337                           ;src/main.c: 80:     Timer0_Config(&timerConfig);
   338  00067E  0E5E               	movlw	low _timerConfig
   339  000680  6E19               	movwf	Timer0_Config@timerConfig^0,c
   340  000682  0E00               	movlw	high _timerConfig
   341  000684  6E1A               	movwf	(Timer0_Config@timerConfig+1)^0,c
   342  000686  ECE2  F002         	call	_Timer0_Config	;wreg free
   343  00068A                     
   344                           ;src/main.c: 81:     Timer0_SetTickHook(tickHook_func);
   345  00068A  0E7E               	movlw	low _tickHook_func
   346  00068C  6E19               	movwf	Timer0_SetTickHook@tickFunc^0,c
   347  00068E  0E02               	movlw	high _tickHook_func
   348  000690  6E1A               	movwf	(Timer0_SetTickHook@tickFunc+1)^0,c
   349  000692  EC97  F003         	call	_Timer0_SetTickHook	;wreg free
   350  000696                     l62:
   351  000696  EF4B  F003         	goto	l62
   352  00069A  EF07  F000         	goto	start
   353  00069E                     __end_of_main:
   354                           	callstack 0
   355                           
   356 ;; *************** function _Timer0_SetTickHook *****************
   357 ;; Defined at:
   358 ;;		line 27 in file "src/pic18f4520/timer/timer.c"
   359 ;; Parameters:    Size  Location     Type
   360 ;;  tickFunc        2   24[COMRAM] PTR FTN(PTR unsigned lon
   361 ;;		 -> tickHook_func(1), 
   362 ;; Auto vars:     Size  Location     Type
   363 ;;		None
   364 ;; Return value:  Size  Location     Type
   365 ;;                  1    wreg      void 
   366 ;; Registers used:
   367 ;;		wreg, status,2, status,0
   368 ;; Tracked objects:
   369 ;;		On entry : 0/0
   370 ;;		On exit  : 0/0
   371 ;;		Unchanged: 0/0
   372 ;; Data sizes:     COMRAM   BANK0   BANK1   BANK2   BANK3   BANK4   BANK5
   373 ;;      Params:         2       0       0       0       0       0       0
   374 ;;      Locals:         0       0       0       0       0       0       0
   375 ;;      Temps:          0       0       0       0       0       0       0
   376 ;;      Totals:         2       0       0       0       0       0       0
   377 ;;Total ram usage:        2 bytes
   378 ;; Hardware stack levels used: 1
   379 ;; Hardware stack levels required when called: 3
   380 ;; This function calls:
   381 ;;		Nothing
   382 ;; This function is called by:
   383 ;;		_main
   384 ;; This function uses a non-reentrant model
   385 ;;
   386                           
   387                           	psect	text1
   388  00072E                     __ptext1:
   389                           	callstack 0
   390  00072E                     _Timer0_SetTickHook:
   391                           	callstack 27
   392  00072E                     
   393                           ;src/pic18f4520/timer/timer.c: 27: void Timer0_SetTickHook(void (*tickFunc)(uint64_t*));
      +                          src/pic18f4520/timer/timer.c: 28: {;src/pic18f4520/timer/timer.c: 29:     tickHook_func_
      +                          prt = tickFunc;
   394  00072E  C019  F04C         	movff	Timer0_SetTickHook@tickFunc,_tickHook_func_prt
   395  000732  C01A  F04D         	movff	Timer0_SetTickHook@tickFunc+1,_tickHook_func_prt+1
   396  000736  0012               	return		;funcret
   397  000738                     __end_of_Timer0_SetTickHook:
   398                           	callstack 0
   399                           
   400 ;; *************** function _Timer0_Config *****************
   401 ;; Defined at:
   402 ;;		line 6 in file "src/pic18f4520/timer/timer.c"
   403 ;; Parameters:    Size  Location     Type
   404 ;;  timerConfig     2   24[COMRAM] PTR struct .
   405 ;;		 -> timerConfig(5), 
   406 ;; Auto vars:     Size  Location     Type
   407 ;;		None
   408 ;; Return value:  Size  Location     Type
   409 ;;                  1    wreg      void 
   410 ;; Registers used:
   411 ;;		wreg, fsr2l, fsr2h, status,2, status,0
   412 ;; Tracked objects:
   413 ;;		On entry : 0/0
   414 ;;		On exit  : 0/0
   415 ;;		Unchanged: 0/0
   416 ;; Data sizes:     COMRAM   BANK0   BANK1   BANK2   BANK3   BANK4   BANK5
   417 ;;      Params:         2       0       0       0       0       0       0
   418 ;;      Locals:         0       0       0       0       0       0       0
   419 ;;      Temps:          1       0       0       0       0       0       0
   420 ;;      Totals:         3       0       0       0       0       0       0
   421 ;;Total ram usage:        3 bytes
   422 ;; Hardware stack levels used: 1
   423 ;; Hardware stack levels required when called: 3
   424 ;; This function calls:
   425 ;;		Nothing
   426 ;; This function is called by:
   427 ;;		_main
   428 ;; This function uses a non-reentrant model
   429 ;;
   430                           
   431                           	psect	text2
   432  0005C4                     __ptext2:
   433                           	callstack 0
   434  0005C4                     _Timer0_Config:
   435                           	callstack 27
   436  0005C4                     
   437                           ;src/pic18f4520/timer/timer.c: 6: void Timer0_Config( timer_config_t* timerConfig );src/
      +                          pic18f4520/timer/timer.c: 7: {;src/pic18f4520/timer/timer.c: 8:     T0CONbits.TMR0ON = 0
      +                          x00;
   438  0005C4  9ED5               	bcf	213,7,c	;volatile
   439  0005C6                     
   440                           ;src/pic18f4520/timer/timer.c: 10:     T0CONbits.T08BIT = timerConfig->timer_length;
   441  0005C6  C019  FFD9         	movff	Timer0_Config@timerConfig,fsr2l
   442  0005CA  C01A  FFDA         	movff	Timer0_Config@timerConfig+1,fsr2h
   443  0005CE  50DF               	movf	indf2,w,c
   444  0005D0  6E1B               	movwf	??_Timer0_Config^0,c
   445  0005D2  3A1B               	swapf	??_Timer0_Config^0,f,c
   446  0005D4  461B               	rlncf	??_Timer0_Config^0,f,c
   447  0005D6  461B               	rlncf	??_Timer0_Config^0,f,c
   448  0005D8  50D5               	movf	213,w,c	;volatile
   449  0005DA  181B               	xorwf	??_Timer0_Config^0,w,c
   450  0005DC  0BBF               	andlw	-65
   451  0005DE  181B               	xorwf	??_Timer0_Config^0,w,c
   452  0005E0  6ED5               	movwf	213,c	;volatile
   453                           
   454                           ;src/pic18f4520/timer/timer.c: 12:     T0CONbits.T0CS = timerConfig->timer_clk_src;
   455  0005E2  EE20 F001          	lfsr	2,1
   456  0005E6  5019               	movf	Timer0_Config@timerConfig^0,w,c
   457  0005E8  26D9               	addwf	fsr2l,f,c
   458  0005EA  501A               	movf	(Timer0_Config@timerConfig+1)^0,w,c
   459  0005EC  22DA               	addwfc	fsr2h,f,c
   460  0005EE  50DF               	movf	indf2,w,c
   461  0005F0  6E1B               	movwf	??_Timer0_Config^0,c
   462  0005F2  3A1B               	swapf	??_Timer0_Config^0,f,c
   463  0005F4  461B               	rlncf	??_Timer0_Config^0,f,c
   464  0005F6  50D5               	movf	213,w,c	;volatile
   465  0005F8  181B               	xorwf	??_Timer0_Config^0,w,c
   466  0005FA  0BDF               	andlw	-33
   467  0005FC  181B               	xorwf	??_Timer0_Config^0,w,c
   468  0005FE  6ED5               	movwf	213,c	;volatile
   469                           
   470                           ;src/pic18f4520/timer/timer.c: 14:     if(!(T0CONbits.PSA = timerConfig->timer_prescaler
      +                          _assign))
   471  000600  EE20 F003          	lfsr	2,3
   472  000604  5019               	movf	Timer0_Config@timerConfig^0,w,c
   473  000606  26D9               	addwf	fsr2l,f,c
   474  000608  501A               	movf	(Timer0_Config@timerConfig+1)^0,w,c
   475  00060A  22DA               	addwfc	fsr2h,f,c
   476  00060C  50DF               	movf	indf2,w,c
   477  00060E  6E1B               	movwf	??_Timer0_Config^0,c
   478  000610  461B               	rlncf	??_Timer0_Config^0,f,c
   479  000612  461B               	rlncf	??_Timer0_Config^0,f,c
   480  000614  461B               	rlncf	??_Timer0_Config^0,f,c
   481  000616  50D5               	movf	213,w,c	;volatile
   482  000618  181B               	xorwf	??_Timer0_Config^0,w,c
   483  00061A  0BF7               	andlw	-9
   484  00061C  181B               	xorwf	??_Timer0_Config^0,w,c
   485  00061E  6ED5               	movwf	213,c	;volatile
   486  000620  30D5               	rrcf	213,w,c	;volatile
   487  000622  32E8               	rrcf	wreg,f,c
   488  000624  32E8               	rrcf	wreg,f,c
   489  000626  0B01               	andlw	1
   490  000628  0900               	iorlw	0
   491  00062A  A4D8               	btfss	status,2,c
   492  00062C  EF1A  F003         	goto	u371
   493  000630  EF1C  F003         	goto	u370
   494  000634                     u371:
   495  000634  EF29  F003         	goto	l1110
   496  000638                     u370:
   497  000638                     
   498                           ;src/pic18f4520/timer/timer.c: 15:     {;src/pic18f4520/timer/timer.c: 16:         T0CON
      +                          bits.T0PS = timerConfig->timer_prescaler_value;
   499  000638  EE20 F004          	lfsr	2,4
   500  00063C  5019               	movf	Timer0_Config@timerConfig^0,w,c
   501  00063E  26D9               	addwf	fsr2l,f,c
   502  000640  501A               	movf	(Timer0_Config@timerConfig+1)^0,w,c
   503  000642  22DA               	addwfc	fsr2h,f,c
   504  000644  50DF               	movf	indf2,w,c
   505  000646  6E1B               	movwf	??_Timer0_Config^0,c
   506  000648  50D5               	movf	213,w,c	;volatile
   507  00064A  181B               	xorwf	??_Timer0_Config^0,w,c
   508  00064C  0BF8               	andlw	-8
   509  00064E  181B               	xorwf	??_Timer0_Config^0,w,c
   510  000650  6ED5               	movwf	213,c	;volatile
   511  000652                     l1110:
   512                           
   513                           ;src/pic18f4520/timer/timer.c: 19:     INTCONbits.TMR0IE = 0x01;
   514  000652  8AF2               	bsf	242,5,c	;volatile
   515  000654                     
   516                           ;src/pic18f4520/timer/timer.c: 20:     INTCON2bits.TMR0IP = 0x01;
   517  000654  84F1               	bsf	241,2,c	;volatile
   518  000656                     
   519                           ;src/pic18f4520/timer/timer.c: 22:     TMR0 = 0x85EE;
   520  000656  0E85               	movlw	133
   521  000658  6ED7               	movwf	215,c	;volatile
   522  00065A  0EEE               	movlw	238
   523  00065C  6ED6               	movwf	214,c	;volatile
   524  00065E                     
   525                           ;src/pic18f4520/timer/timer.c: 24:     T0CONbits.TMR0ON = 0x01;
   526  00065E  8ED5               	bsf	213,7,c	;volatile
   527  000660  0012               	return		;funcret
   528  000662                     __end_of_Timer0_Config:
   529                           	callstack 0
   530                           
   531 ;; *************** function _Serial_1_Config *****************
   532 ;; Defined at:
   533 ;;		line 6 in file "src/pic18f4520/serial/serial.c"
   534 ;; Parameters:    Size  Location     Type
   535 ;;  serialConfig    2   38[COMRAM] PTR struct .
   536 ;;		 -> serialConfig(7), 
   537 ;; Auto vars:     Size  Location     Type
   538 ;;  error_min       1   50[COMRAM] unsigned char 
   539 ;;  error_8HIGH     1   49[COMRAM] unsigned char 
   540 ;;  brg16HIGH       1   48[COMRAM] unsigned char 
   541 ;;  brg8HIGH        1   47[COMRAM] unsigned char 
   542 ;;  brg8LOW         1   46[COMRAM] unsigned char 
   543 ;;  error_16HIGH    1   45[COMRAM] unsigned char 
   544 ;;  error_8LOW      1   44[COMRAM] unsigned char 
   545 ;; Return value:  Size  Location     Type
   546 ;;                  1    wreg      void 
   547 ;; Registers used:
   548 ;;		wreg, fsr2l, fsr2h, status,2, status,0, prodl, prodh, cstack
   549 ;; Tracked objects:
   550 ;;		On entry : 0/0
   551 ;;		On exit  : 0/0
   552 ;;		Unchanged: 0/0
   553 ;; Data sizes:     COMRAM   BANK0   BANK1   BANK2   BANK3   BANK4   BANK5
   554 ;;      Params:         2       0       0       0       0       0       0
   555 ;;      Locals:         7       0       0       0       0       0       0
   556 ;;      Temps:          4       0       0       0       0       0       0
   557 ;;      Totals:        13       0       0       0       0       0       0
   558 ;;Total ram usage:       13 bytes
   559 ;; Hardware stack levels used: 1
   560 ;; Hardware stack levels required when called: 4
   561 ;; This function calls:
   562 ;;		___aldiv
   563 ;; This function is called by:
   564 ;;		_main
   565 ;; This function uses a non-reentrant model
   566 ;;
   567                           
   568                           	psect	text3
   569  000012                     __ptext3:
   570                           	callstack 0
   571  000012                     _Serial_1_Config:
   572                           	callstack 26
   573  000012                     
   574                           ;src/pic18f4520/serial/serial.c: 6: void Serial_1_Config(serial_config_t* serialConfig);
      +                          src/pic18f4520/serial/serial.c: 7: {;src/pic18f4520/serial/serial.c: 8:     uint8_t brg8
      +                          LOW;;src/pic18f4520/serial/serial.c: 9:     uint8_t brg8HIGH;;src/pic18f4520/serial/seri
      +                          al.c: 10:     uint8_t brg16HIGH;;src/pic18f4520/serial/serial.c: 12:     uint8_t error_8
      +                          LOW;;src/pic18f4520/serial/serial.c: 13:     uint8_t error_8HIGH;;src/pic18f4520/serial/
      +                          serial.c: 14:     uint8_t error_16HIGH;;src/pic18f4520/serial/serial.c: 16:     uint8_t 
      +                          error_min;
   575  000012  0E80               	movlw	128
   576  000014  6E19               	movwf	___aldiv@dividend^0,c
   577  000016  0E96               	movlw	150
   578  000018  6E1A               	movwf	(___aldiv@dividend+1)^0,c
   579  00001A  0E98               	movlw	152
   580  00001C  6E1B               	movwf	(___aldiv@dividend+2)^0,c
   581  00001E  0E00               	movlw	0
   582  000020  6E1C               	movwf	(___aldiv@dividend+3)^0,c
   583  000022  EE20 F003          	lfsr	2,3
   584  000026  5027               	movf	Serial_1_Config@serialConfig^0,w,c
   585  000028  26D9               	addwf	fsr2l,f,c
   586  00002A  5028               	movf	(Serial_1_Config@serialConfig+1)^0,w,c
   587  00002C  22DA               	addwfc	fsr2h,f,c
   588  00002E  CFDE F029          	movff	postinc2,??_Serial_1_Config
   589  000032  CFDE F02A          	movff	postinc2,??_Serial_1_Config+1
   590  000036  CFDE F02B          	movff	postinc2,??_Serial_1_Config+2
   591  00003A  CFDE F02C          	movff	postinc2,??_Serial_1_Config+3
   592  00003E  0E06               	movlw	6
   593  000040                     u315:
   594  000040  90D8               	bcf	status,0,c
   595  000042  3629               	rlcf	??_Serial_1_Config^0,f,c
   596  000044  362A               	rlcf	(??_Serial_1_Config+1)^0,f,c
   597  000046  362B               	rlcf	(??_Serial_1_Config+2)^0,f,c
   598  000048  362C               	rlcf	(??_Serial_1_Config+3)^0,f,c
   599  00004A  2EE8               	decfsz	wreg,f,c
   600  00004C  EF20  F000         	goto	u315
   601  000050  C029  F01D         	movff	??_Serial_1_Config,___aldiv@divisor
   602  000054  C02A  F01E         	movff	??_Serial_1_Config+1,___aldiv@divisor+1
   603  000058  C02B  F01F         	movff	??_Serial_1_Config+2,___aldiv@divisor+2
   604  00005C  C02C  F020         	movff	??_Serial_1_Config+3,___aldiv@divisor+3
   605  000060  EC08  F002         	call	___aldiv	;wreg free
   606  000064  5019               	movf	?___aldiv^0,w,c
   607  000066  6E2F               	movwf	Serial_1_Config@brg8LOW^0,c
   608                           
   609                           ;src/pic18f4520/serial/serial.c: 20:     brg8HIGH = (10000000/(serialConfig->serial_desi
      +                          red_baud * 16));
   610  000068  0E80               	movlw	128
   611  00006A  6E19               	movwf	___aldiv@dividend^0,c
   612  00006C  0E96               	movlw	150
   613  00006E  6E1A               	movwf	(___aldiv@dividend+1)^0,c
   614  000070  0E98               	movlw	152
   615  000072  6E1B               	movwf	(___aldiv@dividend+2)^0,c
   616  000074  0E00               	movlw	0
   617  000076  6E1C               	movwf	(___aldiv@dividend+3)^0,c
   618  000078  EE20 F003          	lfsr	2,3
   619  00007C  5027               	movf	Serial_1_Config@serialConfig^0,w,c
   620  00007E  26D9               	addwf	fsr2l,f,c
   621  000080  5028               	movf	(Serial_1_Config@serialConfig+1)^0,w,c
   622  000082  22DA               	addwfc	fsr2h,f,c
   623  000084  CFDE F029          	movff	postinc2,??_Serial_1_Config
   624  000088  CFDE F02A          	movff	postinc2,??_Serial_1_Config+1
   625  00008C  CFDE F02B          	movff	postinc2,??_Serial_1_Config+2
   626  000090  CFDE F02C          	movff	postinc2,??_Serial_1_Config+3
   627  000094  0E04               	movlw	4
   628  000096                     u325:
   629  000096  90D8               	bcf	status,0,c
   630  000098  3629               	rlcf	??_Serial_1_Config^0,f,c
   631  00009A  362A               	rlcf	(??_Serial_1_Config+1)^0,f,c
   632  00009C  362B               	rlcf	(??_Serial_1_Config+2)^0,f,c
   633  00009E  362C               	rlcf	(??_Serial_1_Config+3)^0,f,c
   634  0000A0  2EE8               	decfsz	wreg,f,c
   635  0000A2  EF4B  F000         	goto	u325
   636  0000A6  C029  F01D         	movff	??_Serial_1_Config,___aldiv@divisor
   637  0000AA  C02A  F01E         	movff	??_Serial_1_Config+1,___aldiv@divisor+1
   638  0000AE  C02B  F01F         	movff	??_Serial_1_Config+2,___aldiv@divisor+2
   639  0000B2  C02C  F020         	movff	??_Serial_1_Config+3,___aldiv@divisor+3
   640  0000B6  EC08  F002         	call	___aldiv	;wreg free
   641  0000BA  5019               	movf	?___aldiv^0,w,c
   642  0000BC  6E30               	movwf	Serial_1_Config@brg8HIGH^0,c
   643                           
   644                           ;src/pic18f4520/serial/serial.c: 21:     brg16HIGH = (10000000/(serialConfig->serial_des
      +                          ired_baud * 4));
   645  0000BE  0E80               	movlw	128
   646  0000C0  6E19               	movwf	___aldiv@dividend^0,c
   647  0000C2  0E96               	movlw	150
   648  0000C4  6E1A               	movwf	(___aldiv@dividend+1)^0,c
   649  0000C6  0E98               	movlw	152
   650  0000C8  6E1B               	movwf	(___aldiv@dividend+2)^0,c
   651  0000CA  0E00               	movlw	0
   652  0000CC  6E1C               	movwf	(___aldiv@dividend+3)^0,c
   653  0000CE  EE20 F003          	lfsr	2,3
   654  0000D2  5027               	movf	Serial_1_Config@serialConfig^0,w,c
   655  0000D4  26D9               	addwf	fsr2l,f,c
   656  0000D6  5028               	movf	(Serial_1_Config@serialConfig+1)^0,w,c
   657  0000D8  22DA               	addwfc	fsr2h,f,c
   658  0000DA  CFDE F029          	movff	postinc2,??_Serial_1_Config
   659  0000DE  CFDE F02A          	movff	postinc2,??_Serial_1_Config+1
   660  0000E2  CFDE F02B          	movff	postinc2,??_Serial_1_Config+2
   661  0000E6  CFDE F02C          	movff	postinc2,??_Serial_1_Config+3
   662  0000EA  0E02               	movlw	2
   663  0000EC                     u335:
   664  0000EC  90D8               	bcf	status,0,c
   665  0000EE  3629               	rlcf	??_Serial_1_Config^0,f,c
   666  0000F0  362A               	rlcf	(??_Serial_1_Config+1)^0,f,c
   667  0000F2  362B               	rlcf	(??_Serial_1_Config+2)^0,f,c
   668  0000F4  362C               	rlcf	(??_Serial_1_Config+3)^0,f,c
   669  0000F6  2EE8               	decfsz	wreg,f,c
   670  0000F8  EF76  F000         	goto	u335
   671  0000FC  C029  F01D         	movff	??_Serial_1_Config,___aldiv@divisor
   672  000100  C02A  F01E         	movff	??_Serial_1_Config+1,___aldiv@divisor+1
   673  000104  C02B  F01F         	movff	??_Serial_1_Config+2,___aldiv@divisor+2
   674  000108  C02C  F020         	movff	??_Serial_1_Config+3,___aldiv@divisor+3
   675  00010C  EC08  F002         	call	___aldiv	;wreg free
   676  000110  5019               	movf	?___aldiv^0,w,c
   677  000112  6E31               	movwf	Serial_1_Config@brg16HIGH^0,c
   678  000114                     
   679                           ;src/pic18f4520/serial/serial.c: 24:     error_8LOW = (10000000/(brg8LOW * 64)) - serial
      +                          Config->serial_desired_baud;
   680  000114  EE20 F003          	lfsr	2,3
   681  000118  5027               	movf	Serial_1_Config@serialConfig^0,w,c
   682  00011A  26D9               	addwf	fsr2l,f,c
   683  00011C  5028               	movf	(Serial_1_Config@serialConfig+1)^0,w,c
   684  00011E  22DA               	addwfc	fsr2h,f,c
   685  000120  50DF               	movf	indf2,w,c
   686  000122  6E29               	movwf	??_Serial_1_Config^0,c
   687  000124  0E80               	movlw	128
   688  000126  6E19               	movwf	___aldiv@dividend^0,c
   689  000128  0E96               	movlw	150
   690  00012A  6E1A               	movwf	(___aldiv@dividend+1)^0,c
   691  00012C  0E98               	movlw	152
   692  00012E  6E1B               	movwf	(___aldiv@dividend+2)^0,c
   693  000130  0E00               	movlw	0
   694  000132  6E1C               	movwf	(___aldiv@dividend+3)^0,c
   695  000134  502F               	movf	Serial_1_Config@brg8LOW^0,w,c
   696  000136  0D40               	mullw	64
   697  000138  CFF3 F02A          	movff	prodl,??_Serial_1_Config+1
   698  00013C  CFF4 F02B          	movff	prodh,??_Serial_1_Config+2
   699  000140  C02A  F01D         	movff	??_Serial_1_Config+1,___aldiv@divisor
   700  000144  C02B  F01E         	movff	??_Serial_1_Config+2,___aldiv@divisor+1
   701  000148  0E00               	movlw	0
   702  00014A  BE1E               	btfsc	(___aldiv@divisor+1)^0,7,c
   703  00014C  0EFF               	movlw	-1
   704  00014E  6E1F               	movwf	(___aldiv@divisor+2)^0,c
   705  000150  6E20               	movwf	(___aldiv@divisor+3)^0,c
   706  000152  EC08  F002         	call	___aldiv	;wreg free
   707  000156  5029               	movf	??_Serial_1_Config^0,w,c
   708  000158  5C19               	subwf	?___aldiv^0,w,c
   709  00015A  6E2D               	movwf	Serial_1_Config@error_8LOW^0,c
   710  00015C                     
   711                           ;src/pic18f4520/serial/serial.c: 25:     error_8HIGH = (10000000/(brg8HIGH * 16)) - seri
      +                          alConfig->serial_desired_baud;
   712  00015C  EE20 F003          	lfsr	2,3
   713  000160  5027               	movf	Serial_1_Config@serialConfig^0,w,c
   714  000162  26D9               	addwf	fsr2l,f,c
   715  000164  5028               	movf	(Serial_1_Config@serialConfig+1)^0,w,c
   716  000166  22DA               	addwfc	fsr2h,f,c
   717  000168  50DF               	movf	indf2,w,c
   718  00016A  6E29               	movwf	??_Serial_1_Config^0,c
   719  00016C  0E80               	movlw	128
   720  00016E  6E19               	movwf	___aldiv@dividend^0,c
   721  000170  0E96               	movlw	150
   722  000172  6E1A               	movwf	(___aldiv@dividend+1)^0,c
   723  000174  0E98               	movlw	152
   724  000176  6E1B               	movwf	(___aldiv@dividend+2)^0,c
   725  000178  0E00               	movlw	0
   726  00017A  6E1C               	movwf	(___aldiv@dividend+3)^0,c
   727  00017C  5030               	movf	Serial_1_Config@brg8HIGH^0,w,c
   728  00017E  0D10               	mullw	16
   729  000180  CFF3 F02A          	movff	prodl,??_Serial_1_Config+1
   730  000184  CFF4 F02B          	movff	prodh,??_Serial_1_Config+2
   731  000188  C02A  F01D         	movff	??_Serial_1_Config+1,___aldiv@divisor
   732  00018C  C02B  F01E         	movff	??_Serial_1_Config+2,___aldiv@divisor+1
   733  000190  0E00               	movlw	0
   734  000192  BE1E               	btfsc	(___aldiv@divisor+1)^0,7,c
   735  000194  0EFF               	movlw	-1
   736  000196  6E1F               	movwf	(___aldiv@divisor+2)^0,c
   737  000198  6E20               	movwf	(___aldiv@divisor+3)^0,c
   738  00019A  EC08  F002         	call	___aldiv	;wreg free
   739  00019E  5029               	movf	??_Serial_1_Config^0,w,c
   740  0001A0  5C19               	subwf	?___aldiv^0,w,c
   741  0001A2  6E32               	movwf	Serial_1_Config@error_8HIGH^0,c
   742  0001A4                     
   743                           ;src/pic18f4520/serial/serial.c: 26:     error_16HIGH = (10000000/(brg16HIGH * 4)) - ser
      +                          ialConfig->serial_desired_baud;
   744  0001A4  EE20 F003          	lfsr	2,3
   745  0001A8  5027               	movf	Serial_1_Config@serialConfig^0,w,c
   746  0001AA  26D9               	addwf	fsr2l,f,c
   747  0001AC  5028               	movf	(Serial_1_Config@serialConfig+1)^0,w,c
   748  0001AE  22DA               	addwfc	fsr2h,f,c
   749  0001B0  50DF               	movf	indf2,w,c
   750  0001B2  6E29               	movwf	??_Serial_1_Config^0,c
   751  0001B4  0E80               	movlw	128
   752  0001B6  6E19               	movwf	___aldiv@dividend^0,c
   753  0001B8  0E96               	movlw	150
   754  0001BA  6E1A               	movwf	(___aldiv@dividend+1)^0,c
   755  0001BC  0E98               	movlw	152
   756  0001BE  6E1B               	movwf	(___aldiv@dividend+2)^0,c
   757  0001C0  0E00               	movlw	0
   758  0001C2  6E1C               	movwf	(___aldiv@dividend+3)^0,c
   759  0001C4  5031               	movf	Serial_1_Config@brg16HIGH^0,w,c
   760  0001C6  0D04               	mullw	4
   761  0001C8  CFF3 F02A          	movff	prodl,??_Serial_1_Config+1
   762  0001CC  CFF4 F02B          	movff	prodh,??_Serial_1_Config+2
   763  0001D0  C02A  F01D         	movff	??_Serial_1_Config+1,___aldiv@divisor
   764  0001D4  C02B  F01E         	movff	??_Serial_1_Config+2,___aldiv@divisor+1
   765  0001D8  0E00               	movlw	0
   766  0001DA  BE1E               	btfsc	(___aldiv@divisor+1)^0,7,c
   767  0001DC  0EFF               	movlw	-1
   768  0001DE  6E1F               	movwf	(___aldiv@divisor+2)^0,c
   769  0001E0  6E20               	movwf	(___aldiv@divisor+3)^0,c
   770  0001E2  EC08  F002         	call	___aldiv	;wreg free
   771  0001E6  5029               	movf	??_Serial_1_Config^0,w,c
   772  0001E8  5C19               	subwf	?___aldiv^0,w,c
   773  0001EA  6E2E               	movwf	Serial_1_Config@error_16HIGH^0,c
   774  0001EC                     
   775                           ;src/pic18f4520/serial/serial.c: 29:     error_min = error_8LOW;
   776  0001EC  C02D  F033         	movff	Serial_1_Config@error_8LOW,Serial_1_Config@error_min
   777  0001F0                     
   778                           ;src/pic18f4520/serial/serial.c: 31:     BAUDCONbits.BRG16 = 0x00;
   779  0001F0  96B8               	bcf	184,3,c	;volatile
   780  0001F2                     
   781                           ;src/pic18f4520/serial/serial.c: 32:     TXSTAbits.BRGH = 0x00;
   782  0001F2  94AC               	bcf	172,2,c	;volatile
   783  0001F4                     
   784                           ;src/pic18f4520/serial/serial.c: 34:     SPBRG = (brg8LOW - 1);
   785  0001F4  042F               	decf	Serial_1_Config@brg8LOW^0,w,c
   786  0001F6  6EAF               	movwf	175,c	;volatile
   787  0001F8                     
   788                           ;src/pic18f4520/serial/serial.c: 36:     if(error_8HIGH < error_min)
   789  0001F8  5033               	movf	Serial_1_Config@error_min^0,w,c
   790  0001FA  5C32               	subwf	Serial_1_Config@error_8HIGH^0,w,c
   791  0001FC  B0D8               	btfsc	status,0,c
   792  0001FE  EF03  F001         	goto	u341
   793  000202  EF05  F001         	goto	u340
   794  000206                     u341:
   795  000206  EF0B  F001         	goto	l112
   796  00020A                     u340:
   797  00020A                     
   798                           ;src/pic18f4520/serial/serial.c: 37:     {;src/pic18f4520/serial/serial.c: 38:         e
      +                          rror_min = error_8HIGH;
   799  00020A  C032  F033         	movff	Serial_1_Config@error_8HIGH,Serial_1_Config@error_min
   800                           
   801                           ;src/pic18f4520/serial/serial.c: 40:         BAUDCONbits.BRG16 = 0x00;
   802  00020E  96B8               	bcf	184,3,c	;volatile
   803                           
   804                           ;src/pic18f4520/serial/serial.c: 41:         TXSTAbits.BRGH = 0x01;
   805  000210  84AC               	bsf	172,2,c	;volatile
   806  000212                     
   807                           ;src/pic18f4520/serial/serial.c: 43:         SPBRG = (brg8HIGH - 1);
   808  000212  0430               	decf	Serial_1_Config@brg8HIGH^0,w,c
   809  000214  6EAF               	movwf	175,c	;volatile
   810  000216                     l112:
   811                           
   812                           ;src/pic18f4520/serial/serial.c: 45:     if(error_16HIGH < error_min)
   813  000216  5033               	movf	Serial_1_Config@error_min^0,w,c
   814  000218  5C2E               	subwf	Serial_1_Config@error_16HIGH^0,w,c
   815  00021A  B0D8               	btfsc	status,0,c
   816  00021C  EF12  F001         	goto	u351
   817  000220  EF14  F001         	goto	u350
   818  000224                     u351:
   819  000224  EF18  F001         	goto	l1096
   820  000228                     u350:
   821  000228                     
   822                           ;src/pic18f4520/serial/serial.c: 46:     {;src/pic18f4520/serial/serial.c: 47:         B
      +                          AUDCONbits.BRG16 = 0x01;
   823  000228  86B8               	bsf	184,3,c	;volatile
   824                           
   825                           ;src/pic18f4520/serial/serial.c: 48:         TXSTAbits.BRGH = 0x01;
   826  00022A  84AC               	bsf	172,2,c	;volatile
   827  00022C                     
   828                           ;src/pic18f4520/serial/serial.c: 50:         SPBRG = (brg16HIGH - 1);
   829  00022C  0431               	decf	Serial_1_Config@brg16HIGH^0,w,c
   830  00022E  6EAF               	movwf	175,c	;volatile
   831  000230                     l1096:
   832                           
   833                           ;src/pic18f4520/serial/serial.c: 53:     TXSTAbits.SYNC = serialConfig->serial_op_mode;
   834  000230  EE20 F002          	lfsr	2,2
   835  000234  5027               	movf	Serial_1_Config@serialConfig^0,w,c
   836  000236  26D9               	addwf	fsr2l,f,c
   837  000238  5028               	movf	(Serial_1_Config@serialConfig+1)^0,w,c
   838  00023A  22DA               	addwfc	fsr2h,f,c
   839  00023C  50DF               	movf	indf2,w,c
   840  00023E  6E29               	movwf	??_Serial_1_Config^0,c
   841  000240  3A29               	swapf	??_Serial_1_Config^0,f,c
   842  000242  50AC               	movf	172,w,c	;volatile
   843  000244  1829               	xorwf	??_Serial_1_Config^0,w,c
   844  000246  0BEF               	andlw	-17
   845  000248  1829               	xorwf	??_Serial_1_Config^0,w,c
   846  00024A  6EAC               	movwf	172,c	;volatile
   847  00024C                     
   848                           ;src/pic18f4520/serial/serial.c: 55:     RCSTAbits.SPEN = 0x01;
   849  00024C  8EAB               	bsf	171,7,c	;volatile
   850  00024E                     
   851                           ;src/pic18f4520/serial/serial.c: 57:     if(serialConfig->serial_data_length == SERIAL_D
      +                          ATA_LENGTH_9)
   852  00024E  EE20 F001          	lfsr	2,1
   853  000252  5027               	movf	Serial_1_Config@serialConfig^0,w,c
   854  000254  26D9               	addwf	fsr2l,f,c
   855  000256  5028               	movf	(Serial_1_Config@serialConfig+1)^0,w,c
   856  000258  22DA               	addwfc	fsr2h,f,c
   857  00025A  04DE               	decf	postinc2,w,c
   858  00025C  A4D8               	btfss	status,2,c
   859  00025E  EF33  F001         	goto	u361
   860  000262  EF35  F001         	goto	u360
   861  000266                     u361:
   862  000266  EF39  F001         	goto	l114
   863  00026A                     u360:
   864  00026A                     
   865                           ;src/pic18f4520/serial/serial.c: 58:     {;src/pic18f4520/serial/serial.c: 59:         T
      +                          XSTAbits.TX9 = 0x01;
   866  00026A  8CAC               	bsf	172,6,c	;volatile
   867                           
   868                           ;src/pic18f4520/serial/serial.c: 60:         RCSTAbits.RC9 = 0x01;
   869  00026C  8CAB               	bsf	171,6,c	;volatile
   870                           
   871                           ;src/pic18f4520/serial/serial.c: 61:     }else
   872  00026E  EF3B  F001         	goto	l115
   873  000272                     l114:
   874                           
   875                           ;src/pic18f4520/serial/serial.c: 62:     {;src/pic18f4520/serial/serial.c: 63:         T
      +                          XSTAbits.TX9 = 0x00;
   876  000272  9CAC               	bcf	172,6,c	;volatile
   877                           
   878                           ;src/pic18f4520/serial/serial.c: 64:         RCSTAbits.RC9 = 0x00;
   879  000274  9CAB               	bcf	171,6,c	;volatile
   880  000276                     l115:
   881                           
   882                           ;src/pic18f4520/serial/serial.c: 67:     TXSTAbits.TXEN = 0x01;
   883  000276  8AAC               	bsf	172,5,c	;volatile
   884                           
   885                           ;src/pic18f4520/serial/serial.c: 68:     RCSTAbits.CREN = 0x01;
   886  000278  88AB               	bsf	171,4,c	;volatile
   887                           
   888                           ;src/pic18f4520/serial/serial.c: 70:     PIE1bits.RCIE = 0x01;
   889  00027A  8A9D               	bsf	157,5,c	;volatile
   890  00027C  0012               	return		;funcret
   891  00027E                     __end_of_Serial_1_Config:
   892                           	callstack 0
   893                           
   894 ;; *************** function ___aldiv *****************
   895 ;; Defined at:
   896 ;;		line 7 in file "C:\Program Files\Microchip\xc8\v2.32\pic\sources\c99\common\aldiv.c"
   897 ;; Parameters:    Size  Location     Type
   898 ;;  dividend        4   24[COMRAM] long 
   899 ;;  divisor         4   28[COMRAM] long 
   900 ;; Auto vars:     Size  Location     Type
   901 ;;  quotient        4   34[COMRAM] long 
   902 ;;  sign            1   33[COMRAM] unsigned char 
   903 ;;  counter         1   32[COMRAM] unsigned char 
   904 ;; Return value:  Size  Location     Type
   905 ;;                  4   24[COMRAM] long 
   906 ;; Registers used:
   907 ;;		wreg, status,2, status,0
   908 ;; Tracked objects:
   909 ;;		On entry : 0/0
   910 ;;		On exit  : 0/0
   911 ;;		Unchanged: 0/0
   912 ;; Data sizes:     COMRAM   BANK0   BANK1   BANK2   BANK3   BANK4   BANK5
   913 ;;      Params:         8       0       0       0       0       0       0
   914 ;;      Locals:         6       0       0       0       0       0       0
   915 ;;      Temps:          0       0       0       0       0       0       0
   916 ;;      Totals:        14       0       0       0       0       0       0
   917 ;;Total ram usage:       14 bytes
   918 ;; Hardware stack levels used: 1
   919 ;; Hardware stack levels required when called: 3
   920 ;; This function calls:
   921 ;;		Nothing
   922 ;; This function is called by:
   923 ;;		_Serial_1_Config
   924 ;; This function uses a non-reentrant model
   925 ;;
   926                           
   927                           	psect	text4
   928  000410                     __ptext4:
   929                           	callstack 0
   930  000410                     ___aldiv:
   931                           	callstack 26
   932  000410  0E00               	movlw	0
   933  000412  6E22               	movwf	___aldiv@sign^0,c
   934  000414  BE20               	btfsc	(___aldiv@divisor+3)^0,7,c
   935  000416  EF11  F002         	goto	u240
   936  00041A  EF0F  F002         	goto	u241
   937  00041E                     u241:
   938  00041E  EF1B  F002         	goto	l1016
   939  000422                     u240:
   940  000422  1E20               	comf	(___aldiv@divisor+3)^0,f,c
   941  000424  1E1F               	comf	(___aldiv@divisor+2)^0,f,c
   942  000426  1E1E               	comf	(___aldiv@divisor+1)^0,f,c
   943  000428  6C1D               	negf	___aldiv@divisor^0,c
   944  00042A  0E00               	movlw	0
   945  00042C  221E               	addwfc	(___aldiv@divisor+1)^0,f,c
   946  00042E  221F               	addwfc	(___aldiv@divisor+2)^0,f,c
   947  000430  2220               	addwfc	(___aldiv@divisor+3)^0,f,c
   948  000432  0E01               	movlw	1
   949  000434  6E22               	movwf	___aldiv@sign^0,c
   950  000436                     l1016:
   951  000436  BE1C               	btfsc	(___aldiv@dividend+3)^0,7,c
   952  000438  EF22  F002         	goto	u250
   953  00043C  EF20  F002         	goto	u251
   954  000440                     u251:
   955  000440  EF2C  F002         	goto	l1022
   956  000444                     u250:
   957  000444  1E1C               	comf	(___aldiv@dividend+3)^0,f,c
   958  000446  1E1B               	comf	(___aldiv@dividend+2)^0,f,c
   959  000448  1E1A               	comf	(___aldiv@dividend+1)^0,f,c
   960  00044A  6C19               	negf	___aldiv@dividend^0,c
   961  00044C  0E00               	movlw	0
   962  00044E  221A               	addwfc	(___aldiv@dividend+1)^0,f,c
   963  000450  221B               	addwfc	(___aldiv@dividend+2)^0,f,c
   964  000452  221C               	addwfc	(___aldiv@dividend+3)^0,f,c
   965  000454  0E01               	movlw	1
   966  000456  1A22               	xorwf	___aldiv@sign^0,f,c
   967  000458                     l1022:
   968  000458  0E00               	movlw	0
   969  00045A  6E23               	movwf	___aldiv@quotient^0,c
   970  00045C  0E00               	movlw	0
   971  00045E  6E24               	movwf	(___aldiv@quotient+1)^0,c
   972  000460  0E00               	movlw	0
   973  000462  6E25               	movwf	(___aldiv@quotient+2)^0,c
   974  000464  0E00               	movlw	0
   975  000466  6E26               	movwf	(___aldiv@quotient+3)^0,c
   976  000468  501D               	movf	___aldiv@divisor^0,w,c
   977  00046A  101E               	iorwf	(___aldiv@divisor+1)^0,w,c
   978  00046C  101F               	iorwf	(___aldiv@divisor+2)^0,w,c
   979  00046E  1020               	iorwf	(___aldiv@divisor+3)^0,w,c
   980  000470  B4D8               	btfsc	status,2,c
   981  000472  EF3D  F002         	goto	u261
   982  000476  EF3F  F002         	goto	u260
   983  00047A                     u261:
   984  00047A  EF75  F002         	goto	l1044
   985  00047E                     u260:
   986  00047E  0E01               	movlw	1
   987  000480  6E21               	movwf	___aldiv@counter^0,c
   988  000482  EF49  F002         	goto	l1030
   989  000486                     l1028:
   990  000486  90D8               	bcf	status,0,c
   991  000488  361D               	rlcf	___aldiv@divisor^0,f,c
   992  00048A  361E               	rlcf	(___aldiv@divisor+1)^0,f,c
   993  00048C  361F               	rlcf	(___aldiv@divisor+2)^0,f,c
   994  00048E  3620               	rlcf	(___aldiv@divisor+3)^0,f,c
   995  000490  2A21               	incf	___aldiv@counter^0,f,c
   996  000492                     l1030:
   997  000492  AE20               	btfss	(___aldiv@divisor+3)^0,7,c
   998  000494  EF4E  F002         	goto	u271
   999  000498  EF50  F002         	goto	u270
  1000  00049C                     u271:
  1001  00049C  EF43  F002         	goto	l1028
  1002  0004A0                     u270:
  1003  0004A0                     l1032:
  1004  0004A0  90D8               	bcf	status,0,c
  1005  0004A2  3623               	rlcf	___aldiv@quotient^0,f,c
  1006  0004A4  3624               	rlcf	(___aldiv@quotient+1)^0,f,c
  1007  0004A6  3625               	rlcf	(___aldiv@quotient+2)^0,f,c
  1008  0004A8  3626               	rlcf	(___aldiv@quotient+3)^0,f,c
  1009  0004AA  501D               	movf	___aldiv@divisor^0,w,c
  1010  0004AC  5C19               	subwf	___aldiv@dividend^0,w,c
  1011  0004AE  501E               	movf	(___aldiv@divisor+1)^0,w,c
  1012  0004B0  581A               	subwfb	(___aldiv@dividend+1)^0,w,c
  1013  0004B2  501F               	movf	(___aldiv@divisor+2)^0,w,c
  1014  0004B4  581B               	subwfb	(___aldiv@dividend+2)^0,w,c
  1015  0004B6  5020               	movf	(___aldiv@divisor+3)^0,w,c
  1016  0004B8  581C               	subwfb	(___aldiv@dividend+3)^0,w,c
  1017  0004BA  A0D8               	btfss	status,0,c
  1018  0004BC  EF62  F002         	goto	u281
  1019  0004C0  EF64  F002         	goto	u280
  1020  0004C4                     u281:
  1021  0004C4  EF6D  F002         	goto	l1040
  1022  0004C8                     u280:
  1023  0004C8  501D               	movf	___aldiv@divisor^0,w,c
  1024  0004CA  5E19               	subwf	___aldiv@dividend^0,f,c
  1025  0004CC  501E               	movf	(___aldiv@divisor+1)^0,w,c
  1026  0004CE  5A1A               	subwfb	(___aldiv@dividend+1)^0,f,c
  1027  0004D0  501F               	movf	(___aldiv@divisor+2)^0,w,c
  1028  0004D2  5A1B               	subwfb	(___aldiv@dividend+2)^0,f,c
  1029  0004D4  5020               	movf	(___aldiv@divisor+3)^0,w,c
  1030  0004D6  5A1C               	subwfb	(___aldiv@dividend+3)^0,f,c
  1031  0004D8  8023               	bsf	___aldiv@quotient^0,0,c
  1032  0004DA                     l1040:
  1033  0004DA  90D8               	bcf	status,0,c
  1034  0004DC  3220               	rrcf	(___aldiv@divisor+3)^0,f,c
  1035  0004DE  321F               	rrcf	(___aldiv@divisor+2)^0,f,c
  1036  0004E0  321E               	rrcf	(___aldiv@divisor+1)^0,f,c
  1037  0004E2  321D               	rrcf	___aldiv@divisor^0,f,c
  1038  0004E4  2E21               	decfsz	___aldiv@counter^0,f,c
  1039  0004E6  EF50  F002         	goto	l1032
  1040  0004EA                     l1044:
  1041  0004EA  5022               	movf	___aldiv@sign^0,w,c
  1042  0004EC  B4D8               	btfsc	status,2,c
  1043  0004EE  EF7B  F002         	goto	u291
  1044  0004F2  EF7D  F002         	goto	u290
  1045  0004F6                     u291:
  1046  0004F6  EF85  F002         	goto	l1048
  1047  0004FA                     u290:
  1048  0004FA  1E26               	comf	(___aldiv@quotient+3)^0,f,c
  1049  0004FC  1E25               	comf	(___aldiv@quotient+2)^0,f,c
  1050  0004FE  1E24               	comf	(___aldiv@quotient+1)^0,f,c
  1051  000500  6C23               	negf	___aldiv@quotient^0,c
  1052  000502  0E00               	movlw	0
  1053  000504  2224               	addwfc	(___aldiv@quotient+1)^0,f,c
  1054  000506  2225               	addwfc	(___aldiv@quotient+2)^0,f,c
  1055  000508  2226               	addwfc	(___aldiv@quotient+3)^0,f,c
  1056  00050A                     l1048:
  1057  00050A  C023  F019         	movff	___aldiv@quotient,?___aldiv
  1058  00050E  C024  F01A         	movff	___aldiv@quotient+1,?___aldiv+1
  1059  000512  C025  F01B         	movff	___aldiv@quotient+2,?___aldiv+2
  1060  000516  C026  F01C         	movff	___aldiv@quotient+3,?___aldiv+3
  1061  00051A  0012               	return		;funcret
  1062  00051C                     __end_of___aldiv:
  1063                           	callstack 0
  1064                           
  1065 ;; *************** function _Peripheral_Controller *****************
  1066 ;; Defined at:
  1067 ;;		line 6 in file "src/board/peripheral_controller/peripheral_controller.c"
  1068 ;; Parameters:    Size  Location     Type
  1069 ;;  args            2   24[COMRAM] PTR void 
  1070 ;;		 -> NULL(0), 
  1071 ;; Auto vars:     Size  Location     Type
  1072 ;;		None
  1073 ;; Return value:  Size  Location     Type
  1074 ;;                  1    wreg      void 
  1075 ;; Registers used:
  1076 ;;		wreg, status,2, status,0
  1077 ;; Tracked objects:
  1078 ;;		On entry : 0/0
  1079 ;;		On exit  : 0/0
  1080 ;;		Unchanged: 0/0
  1081 ;; Data sizes:     COMRAM   BANK0   BANK1   BANK2   BANK3   BANK4   BANK5
  1082 ;;      Params:         2       0       0       0       0       0       0
  1083 ;;      Locals:         0       0       0       0       0       0       0
  1084 ;;      Temps:          0       0       0       0       0       0       0
  1085 ;;      Totals:         2       0       0       0       0       0       0
  1086 ;;Total ram usage:        2 bytes
  1087 ;; Hardware stack levels used: 1
  1088 ;; Hardware stack levels required when called: 3
  1089 ;; This function calls:
  1090 ;;		Nothing
  1091 ;; This function is called by:
  1092 ;;		_main
  1093 ;; This function uses a non-reentrant model
  1094 ;;
  1095                           
  1096                           	psect	text5
  1097  0006D8                     __ptext5:
  1098                           	callstack 0
  1099  0006D8                     _Peripheral_Controller:
  1100                           	callstack 27
  1101  0006D8  5093               	movf	147,w,c	;volatile
  1102  0006DA  0BFE               	andlw	254
  1103  0006DC  6E93               	movwf	147,c	;volatile
  1104  0006DE  5093               	movf	147,w,c	;volatile
  1105  0006E0  0BFD               	andlw	253
  1106  0006E2  6E93               	movwf	147,c	;volatile
  1107  0006E4  5093               	movf	147,w,c	;volatile
  1108  0006E6  0BFB               	andlw	251
  1109  0006E8  6E93               	movwf	147,c	;volatile
  1110  0006EA  5081               	movf	129,w,c	;volatile
  1111  0006EC  0BFE               	andlw	254
  1112  0006EE  6E8A               	movwf	138,c	;volatile
  1113  0006F0  5081               	movf	129,w,c	;volatile
  1114  0006F2  0902               	iorlw	2
  1115  0006F4  6E8A               	movwf	138,c	;volatile
  1116  0006F6  5081               	movf	129,w,c	;volatile
  1117  0006F8  0904               	iorlw	4
  1118  0006FA  6E8A               	movwf	138,c	;volatile
  1119  0006FC  0012               	return		;funcret
  1120  0006FE                     __end_of_Peripheral_Controller:
  1121                           	callstack 0
  1122                           
  1123 ;; *************** function _Interrupt_GlobalEnable *****************
  1124 ;; Defined at:
  1125 ;;		line 4 in file "src/pic18f4520/interrupt/interrupt.c"
  1126 ;; Parameters:    Size  Location     Type
  1127 ;;		None
  1128 ;; Auto vars:     Size  Location     Type
  1129 ;;		None
  1130 ;; Return value:  Size  Location     Type
  1131 ;;                  1    wreg      void 
  1132 ;; Registers used:
  1133 ;;		None
  1134 ;; Tracked objects:
  1135 ;;		On entry : 0/0
  1136 ;;		On exit  : 0/0
  1137 ;;		Unchanged: 0/0
  1138 ;; Data sizes:     COMRAM   BANK0   BANK1   BANK2   BANK3   BANK4   BANK5
  1139 ;;      Params:         0       0       0       0       0       0       0
  1140 ;;      Locals:         0       0       0       0       0       0       0
  1141 ;;      Temps:          0       0       0       0       0       0       0
  1142 ;;      Totals:         0       0       0       0       0       0       0
  1143 ;;Total ram usage:        0 bytes
  1144 ;; Hardware stack levels used: 1
  1145 ;; Hardware stack levels required when called: 3
  1146 ;; This function calls:
  1147 ;;		Nothing
  1148 ;; This function is called by:
  1149 ;;		_main
  1150 ;; This function uses a non-reentrant model
  1151 ;;
  1152                           
  1153                           	psect	text6
  1154  000738                     __ptext6:
  1155                           	callstack 0
  1156  000738                     _Interrupt_GlobalEnable:
  1157                           	callstack 27
  1158  000738                     
  1159                           ;src/pic18f4520/interrupt/interrupt.c: 6:     RCONbits.IPEN = 0x01;
  1160  000738  8ED0               	bsf	208,7,c	;volatile
  1161                           
  1162                           ;src/pic18f4520/interrupt/interrupt.c: 7:     INTCONbits.GIE_GIEH = 0x01;
  1163  00073A  8EF2               	bsf	242,7,c	;volatile
  1164                           
  1165                           ;src/pic18f4520/interrupt/interrupt.c: 8:     INTCONbits.PEIE_GIEL = 0x01;
  1166  00073C  8CF2               	bsf	242,6,c	;volatile
  1167  00073E  0012               	return		;funcret
  1168  000740                     __end_of_Interrupt_GlobalEnable:
  1169                           	callstack 0
  1170                           
  1171 ;; *************** function _TASK_Manager *****************
  1172 ;; Defined at:
  1173 ;;		line 49 in file "src/main.c"
  1174 ;; Parameters:    Size  Location     Type
  1175 ;;		None
  1176 ;; Auto vars:     Size  Location     Type
  1177 ;;		None
  1178 ;; Return value:  Size  Location     Type
  1179 ;;                  1    wreg      void 
  1180 ;; Registers used:
  1181 ;;		wreg, fsr2l, fsr2h, status,2, status,0, pclath, tosl, cstack
  1182 ;; Tracked objects:
  1183 ;;		On entry : 0/0
  1184 ;;		On exit  : 0/0
  1185 ;;		Unchanged: 0/0
  1186 ;; Data sizes:     COMRAM   BANK0   BANK1   BANK2   BANK3   BANK4   BANK5
  1187 ;;      Params:         0       0       0       0       0       0       0
  1188 ;;      Locals:         0       0       0       0       0       0       0
  1189 ;;      Temps:          4       0       0       0       0       0       0
  1190 ;;      Totals:         4       0       0       0       0       0       0
  1191 ;;Total ram usage:        4 bytes
  1192 ;; Hardware stack levels used: 1
  1193 ;; Hardware stack levels required when called: 2
  1194 ;; This function calls:
  1195 ;;		_Serial_Receive
  1196 ;;		_tickHook_Execute
  1197 ;; This function is called by:
  1198 ;;		Interrupt level 2
  1199 ;; This function uses a non-reentrant model
  1200 ;;
  1201                           
  1202                           	psect	intcode
  1203  000008                     __pintcode:
  1204                           	callstack 0
  1205  000008                     _TASK_Manager:
  1206                           	callstack 26
  1207                           
  1208                           ;incstack = 0
  1209  000008  8263               	bsf	int$flags,1,c	;set compiler interrupt flag (level 2)
  1210  00000A  ED8E  F002         	call	int_func,f	;refresh shadow registers
  1211                           
  1212                           	psect	intcode_body
  1213  00051C                     __pintcode_body:
  1214                           	callstack 26
  1215  00051C                     int_func:
  1216                           	callstack 26
  1217  00051C  0006               	pop		; remove dummy address from shadow register refresh
  1218  00051E  CFFA F015          	movff	pclath,??_TASK_Manager
  1219  000522  CFFB F016          	movff	pclatu,??_TASK_Manager+1
  1220  000526  CFD9 F017          	movff	fsr2l,??_TASK_Manager+2
  1221  00052A  CFDA F018          	movff	fsr2h,??_TASK_Manager+3
  1222  00052E                     
  1223                           ;src/main.c: 52:     if (INTCONbits.TMR0IF == 0x01)
  1224  00052E  A4F2               	btfss	242,2,c	;volatile
  1225  000530  EF9C  F002         	goto	i2u38_41
  1226  000534  EF9E  F002         	goto	i2u38_40
  1227  000538                     i2u38_41:
  1228  000538  EFB3  F002         	goto	i2l1130
  1229  00053C                     i2u38_40:
  1230  00053C                     
  1231                           ;src/main.c: 53:     {;src/main.c: 54:         global_timer_value++;
  1232  00053C  0E01               	movlw	1
  1233  00053E  264F               	addwf	_global_timer_value@timer$F182^0,f,c
  1234  000540  0E00               	movlw	0
  1235  000542  2250               	addwfc	(_global_timer_value@timer$F182+1)^0,f,c
  1236  000544  2251               	addwfc	(_global_timer_value@timer$F182+2)^0,f,c
  1237  000546  2252               	addwfc	(_global_timer_value@timer$F182+3)^0,f,c
  1238  000548  2253               	addwfc	(_global_timer_value@timer$F182+4)^0,f,c
  1239  00054A  2254               	addwfc	(_global_timer_value@timer$F182+5)^0,f,c
  1240  00054C  2255               	addwfc	(_global_timer_value@timer$F182+6)^0,f,c
  1241  00054E  2256               	addwfc	(_global_timer_value@timer$F182+7)^0,f,c
  1242  000550                     
  1243                           ;src/main.c: 55:         tickHook_Execute(&global_timer_value);
  1244  000550  0E4F               	movlw	low _global_timer_value@timer$F182
  1245  000552  6E13               	movwf	tickHook_Execute@global_timer_value^0,c
  1246  000554  0E00               	movlw	high _global_timer_value@timer$F182
  1247  000556  6E14               	movwf	(tickHook_Execute@global_timer_value+1)^0,c
  1248  000558  EC7F  F003         	call	_tickHook_Execute	;wreg free
  1249  00055C                     
  1250                           ;src/main.c: 56:         TMR0 = 0x85EE;
  1251  00055C  0E85               	movlw	133
  1252  00055E  6ED7               	movwf	215,c	;volatile
  1253  000560  0EEE               	movlw	238
  1254  000562  6ED6               	movwf	214,c	;volatile
  1255  000564                     
  1256                           ;src/main.c: 57:         INTCONbits.T0IF = 0x00;
  1257  000564  94F2               	bcf	242,2,c	;volatile
  1258  000566                     i2l1130:
  1259                           
  1260                           ;src/main.c: 61:     if(PIR1bits.RCIF)
  1261  000566  AA9E               	btfss	158,5,c	;volatile
  1262  000568  EFB8  F002         	goto	i2u39_41
  1263  00056C  EFBA  F002         	goto	i2u39_40
  1264  000570                     i2u39_41:
  1265  000570  EFD8  F002         	goto	i2l57
  1266  000574                     i2u39_40:
  1267  000574                     
  1268                           ;src/main.c: 62:     {;src/main.c: 63:         serial_byte_received = Serial_Receive();
  1269  000574  ECA0  F003         	call	_Serial_Receive	;wreg free
  1270  000578  6E4E               	movwf	_serial_byte_received^0,c
  1271  00057A                     
  1272                           ;src/main.c: 65:         {;src/main.c: 66:             if(0x01 == 0x01) LATB = (PORTB | 
      +                          (1 << 2)); else LATB = (PORTB & ~((1 << 2)));;
  1273  00057A  0E41               	movlw	65
  1274  00057C  184E               	xorwf	_serial_byte_received^0,w,c
  1275  00057E  A4D8               	btfss	status,2,c
  1276  000580  EFC4  F002         	goto	i2u40_41
  1277  000584  EFC6  F002         	goto	i2u40_40
  1278  000588                     i2u40_41:
  1279  000588  EFCB  F002         	goto	i2l1140
  1280  00058C                     i2u40_40:
  1281  00058C  5081               	movf	129,w,c	;volatile
  1282  00058E  0904               	iorlw	4
  1283  000590  6E8A               	movwf	138,c	;volatile
  1284  000592  EFD7  F002         	goto	i2l1148
  1285  000596                     i2l1140:
  1286  000596  0E44               	movlw	68
  1287  000598  184E               	xorwf	_serial_byte_received^0,w,c
  1288  00059A  A4D8               	btfss	status,2,c
  1289  00059C  EFD2  F002         	goto	i2u41_41
  1290  0005A0  EFD4  F002         	goto	i2u41_40
  1291  0005A4                     i2u41_41:
  1292  0005A4  EFD7  F002         	goto	i2l1148
  1293  0005A8                     i2u41_40:
  1294  0005A8  5081               	movf	129,w,c	;volatile
  1295  0005AA  0BFB               	andlw	251
  1296  0005AC  6E8A               	movwf	138,c	;volatile
  1297  0005AE                     i2l1148:
  1298                           
  1299                           ;src/main.c: 71:         PIR1bits.RCIF = 0x00;
  1300  0005AE  9A9E               	bcf	158,5,c	;volatile
  1301  0005B0                     i2l57:
  1302  0005B0  C018  FFDA         	movff	??_TASK_Manager+3,fsr2h
  1303  0005B4  C017  FFD9         	movff	??_TASK_Manager+2,fsr2l
  1304  0005B8  C016  FFFB         	movff	??_TASK_Manager+1,pclatu
  1305  0005BC  C015  FFFA         	movff	??_TASK_Manager,pclath
  1306  0005C0  9263               	bcf	int$flags,1,c	;clear compiler interrupt flag (level 2)
  1307  0005C2  0011               	retfie		f
  1308  0005C4                     __end_of_TASK_Manager:
  1309                           	callstack 0
  1310                           
  1311 ;; *************** function _tickHook_Execute *****************
  1312 ;; Defined at:
  1313 ;;		line 32 in file "src/pic18f4520/timer/timer.c"
  1314 ;; Parameters:    Size  Location     Type
  1315 ;;  global_timer    2   18[COMRAM] PTR unsigned long long 
  1316 ;;		 -> global_timer_value@timer$F182(8), 
  1317 ;; Auto vars:     Size  Location     Type
  1318 ;;		None
  1319 ;; Return value:  Size  Location     Type
  1320 ;;                  1    wreg      void 
  1321 ;; Registers used:
  1322 ;;		wreg, fsr2l, fsr2h, status,2, status,0, pclath, tosl, cstack
  1323 ;; Tracked objects:
  1324 ;;		On entry : 0/0
  1325 ;;		On exit  : 0/0
  1326 ;;		Unchanged: 0/0
  1327 ;; Data sizes:     COMRAM   BANK0   BANK1   BANK2   BANK3   BANK4   BANK5
  1328 ;;      Params:         2       0       0       0       0       0       0
  1329 ;;      Locals:         0       0       0       0       0       0       0
  1330 ;;      Temps:          0       0       0       0       0       0       0
  1331 ;;      Totals:         2       0       0       0       0       0       0
  1332 ;;Total ram usage:        2 bytes
  1333 ;; Hardware stack levels used: 1
  1334 ;; Hardware stack levels required when called: 1
  1335 ;; This function calls:
  1336 ;;		Absolute function
  1337 ;;		_tickHook_func
  1338 ;; This function is called by:
  1339 ;;		_TASK_Manager
  1340 ;; This function uses a non-reentrant model
  1341 ;;
  1342                           
  1343                           	psect	text8
  1344  0006FE                     __ptext8:
  1345                           	callstack 0
  1346  0006FE                     _tickHook_Execute:
  1347                           	callstack 26
  1348  0006FE                     
  1349                           ;src/pic18f4520/timer/timer.c: 32: void tickHook_Execute(uint64_t* global_timer_value);s
      +                          rc/pic18f4520/timer/timer.c: 33: {;src/pic18f4520/timer/timer.c: 34:     tickHook_func_p
      +                          rt(global_timer_value);
  1350  0006FE  C013  F001         	movff	tickHook_Execute@global_timer_value,tickHook_func@timer_value
  1351  000702  C014  F002         	movff	tickHook_Execute@global_timer_value+1,tickHook_func@timer_value+1
  1352  000706  D802               	call	i2u30_48
  1353  000708  EF90  F003         	goto	i2u30_49
  1354  00070C                     i2u30_48:
  1355  00070C  0005               	push	
  1356  00070E  6EFA               	movwf	pclath,c
  1357  000710  504C               	movf	_tickHook_func_prt^0,w,c
  1358  000712  6EFD               	movwf	tosl,c
  1359  000714  504D               	movf	(_tickHook_func_prt+1)^0,w,c
  1360  000716  6EFE               	movwf	tosh,c
  1361  000718  50F8               	movf	tblptru,w,c
  1362  00071A  6EFF               	movwf	tosu,c
  1363  00071C  50FA               	movf	pclath,w,c
  1364  00071E  0012               	return		;indir
  1365  000720                     i2u30_49:
  1366  000720  0012               	return		;funcret
  1367  000722                     __end_of_tickHook_Execute:
  1368                           	callstack 0
  1369                           
  1370 ;; *************** function _tickHook_func *****************
  1371 ;; Defined at:
  1372 ;;		line 35 in file "src/main.c"
  1373 ;; Parameters:    Size  Location     Type
  1374 ;;  timer_value     2    0[COMRAM] PTR unsigned long long 
  1375 ;;		 -> global_timer_value@timer$F182(8), 
  1376 ;; Auto vars:     Size  Location     Type
  1377 ;;		None
  1378 ;; Return value:  Size  Location     Type
  1379 ;;                  1    wreg      void 
  1380 ;; Registers used:
  1381 ;;		wreg, fsr2l, fsr2h, status,2, status,0
  1382 ;; Tracked objects:
  1383 ;;		On entry : 0/0
  1384 ;;		On exit  : 0/0
  1385 ;;		Unchanged: 0/0
  1386 ;; Data sizes:     COMRAM   BANK0   BANK1   BANK2   BANK3   BANK4   BANK5
  1387 ;;      Params:         2       0       0       0       0       0       0
  1388 ;;      Locals:         0       0       0       0       0       0       0
  1389 ;;      Temps:         16       0       0       0       0       0       0
  1390 ;;      Totals:        18       0       0       0       0       0       0
  1391 ;;Total ram usage:       18 bytes
  1392 ;; Hardware stack levels used: 1
  1393 ;; This function calls:
  1394 ;;		Nothing
  1395 ;; This function is called by:
  1396 ;;		_main
  1397 ;;		_tickHook_Execute
  1398 ;; This function uses a non-reentrant model
  1399 ;;
  1400                           
  1401                           	psect	text9
  1402  00027E                     __ptext9:
  1403                           	callstack 0
  1404  00027E                     _tickHook_func:
  1405                           	callstack 26
  1406  00027E                     
  1407                           ;src/main.c: 35: void tickHook_func(uint64_t *timer_value);src/main.c: 36: {;src/main.c:
      +                           37:     if((*timer_value - last_time_blink_led_0) >= 5)
  1408  00027E  C001  FFD9         	movff	tickHook_func@timer_value,fsr2l
  1409  000282  C002  FFDA         	movff	tickHook_func@timer_value+1,fsr2h
  1410  000286  CFDE F003          	movff	postinc2,??_tickHook_func
  1411  00028A  CFDE F004          	movff	postinc2,??_tickHook_func+1
  1412  00028E  CFDE F005          	movff	postinc2,??_tickHook_func+2
  1413  000292  CFDE F006          	movff	postinc2,??_tickHook_func+3
  1414  000296  CFDE F007          	movff	postinc2,??_tickHook_func+4
  1415  00029A  CFDE F008          	movff	postinc2,??_tickHook_func+5
  1416  00029E  CFDE F009          	movff	postinc2,??_tickHook_func+6
  1417  0002A2  CFDE F00A          	movff	postinc2,??_tickHook_func+7
  1418  0002A6  5044               	movf	_last_time_blink_led_0^0,w,c
  1419  0002A8  5C03               	subwf	??_tickHook_func^0,w,c
  1420  0002AA  6E0B               	movwf	(??_tickHook_func+8)^0,c
  1421  0002AC  5045               	movf	(_last_time_blink_led_0+1)^0,w,c
  1422  0002AE  5804               	subwfb	(??_tickHook_func+1)^0,w,c
  1423  0002B0  6E0C               	movwf	(??_tickHook_func+9)^0,c
  1424  0002B2  5046               	movf	(_last_time_blink_led_0+2)^0,w,c
  1425  0002B4  5805               	subwfb	(??_tickHook_func+2)^0,w,c
  1426  0002B6  6E0D               	movwf	(??_tickHook_func+10)^0,c
  1427  0002B8  5047               	movf	(_last_time_blink_led_0+3)^0,w,c
  1428  0002BA  5806               	subwfb	(??_tickHook_func+3)^0,w,c
  1429  0002BC  6E0E               	movwf	(??_tickHook_func+11)^0,c
  1430  0002BE  5048               	movf	(_last_time_blink_led_0+4)^0,w,c
  1431  0002C0  5807               	subwfb	(??_tickHook_func+4)^0,w,c
  1432  0002C2  6E0F               	movwf	(??_tickHook_func+12)^0,c
  1433  0002C4  5049               	movf	(_last_time_blink_led_0+5)^0,w,c
  1434  0002C6  5808               	subwfb	(??_tickHook_func+5)^0,w,c
  1435  0002C8  6E10               	movwf	(??_tickHook_func+13)^0,c
  1436  0002CA  504A               	movf	(_last_time_blink_led_0+6)^0,w,c
  1437  0002CC  5809               	subwfb	(??_tickHook_func+6)^0,w,c
  1438  0002CE  6E11               	movwf	(??_tickHook_func+14)^0,c
  1439  0002D0  504B               	movf	(_last_time_blink_led_0+7)^0,w,c
  1440  0002D2  580A               	subwfb	(??_tickHook_func+7)^0,w,c
  1441  0002D4  6E12               	movwf	(??_tickHook_func+15)^0,c
  1442  0002D6  5012               	movf	(??_tickHook_func+15)^0,w,c
  1443  0002D8  1011               	iorwf	(??_tickHook_func+14)^0,w,c
  1444  0002DA  1010               	iorwf	(??_tickHook_func+13)^0,w,c
  1445  0002DC  100F               	iorwf	(??_tickHook_func+12)^0,w,c
  1446  0002DE  100E               	iorwf	(??_tickHook_func+11)^0,w,c
  1447  0002E0  100D               	iorwf	(??_tickHook_func+10)^0,w,c
  1448  0002E2  100C               	iorwf	(??_tickHook_func+9)^0,w,c
  1449  0002E4  E109               	bnz	i2u22_40
  1450  0002E6  0E05               	movlw	5
  1451  0002E8  5C0B               	subwf	(??_tickHook_func+8)^0,w,c
  1452  0002EA  A0D8               	btfss	status,0,c
  1453  0002EC  EF7A  F001         	goto	i2u22_41
  1454  0002F0  EF7C  F001         	goto	i2u22_40
  1455  0002F4                     i2u22_41:
  1456  0002F4  EFA3  F001         	goto	i2l41
  1457  0002F8                     i2u22_40:
  1458  0002F8                     
  1459                           ;src/main.c: 38:     {;src/main.c: 39:         LATB = (PORTB ^ (1 << 0));;
  1460  0002F8  5081               	movf	129,w,c	;volatile
  1461  0002FA  0A01               	xorlw	1
  1462  0002FC  6E8A               	movwf	138,c	;volatile
  1463  0002FE                     
  1464                           ;src/main.c: 40:         last_time_blink_led_0 = *timer_value;
  1465  0002FE  C001  FFD9         	movff	tickHook_func@timer_value,fsr2l
  1466  000302  C002  FFDA         	movff	tickHook_func@timer_value+1,fsr2h
  1467  000306  CFDE F003          	movff	postinc2,??_tickHook_func
  1468  00030A  CFDE F004          	movff	postinc2,??_tickHook_func+1
  1469  00030E  CFDE F005          	movff	postinc2,??_tickHook_func+2
  1470  000312  CFDE F006          	movff	postinc2,??_tickHook_func+3
  1471  000316  CFDE F007          	movff	postinc2,??_tickHook_func+4
  1472  00031A  CFDE F008          	movff	postinc2,??_tickHook_func+5
  1473  00031E  CFDE F009          	movff	postinc2,??_tickHook_func+6
  1474  000322  CFDE F00A          	movff	postinc2,??_tickHook_func+7
  1475  000326  C003  F044         	movff	??_tickHook_func,_last_time_blink_led_0
  1476  00032A  C004  F045         	movff	??_tickHook_func+1,_last_time_blink_led_0+1
  1477  00032E  C005  F046         	movff	??_tickHook_func+2,_last_time_blink_led_0+2
  1478  000332  C006  F047         	movff	??_tickHook_func+3,_last_time_blink_led_0+3
  1479  000336  C007  F048         	movff	??_tickHook_func+4,_last_time_blink_led_0+4
  1480  00033A  C008  F049         	movff	??_tickHook_func+5,_last_time_blink_led_0+5
  1481  00033E  C009  F04A         	movff	??_tickHook_func+6,_last_time_blink_led_0+6
  1482  000342  C00A  F04B         	movff	??_tickHook_func+7,_last_time_blink_led_0+7
  1483  000346                     i2l41:
  1484                           
  1485                           ;src/main.c: 42:     if((*timer_value - last_time_blink_led_1) >= 10)
  1486  000346  C001  FFD9         	movff	tickHook_func@timer_value,fsr2l
  1487  00034A  C002  FFDA         	movff	tickHook_func@timer_value+1,fsr2h
  1488  00034E  CFDE F003          	movff	postinc2,??_tickHook_func
  1489  000352  CFDE F004          	movff	postinc2,??_tickHook_func+1
  1490  000356  CFDE F005          	movff	postinc2,??_tickHook_func+2
  1491  00035A  CFDE F006          	movff	postinc2,??_tickHook_func+3
  1492  00035E  CFDE F007          	movff	postinc2,??_tickHook_func+4
  1493  000362  CFDE F008          	movff	postinc2,??_tickHook_func+5
  1494  000366  CFDE F009          	movff	postinc2,??_tickHook_func+6
  1495  00036A  CFDE F00A          	movff	postinc2,??_tickHook_func+7
  1496  00036E  503C               	movf	_last_time_blink_led_1^0,w,c
  1497  000370  5C03               	subwf	??_tickHook_func^0,w,c
  1498  000372  6E0B               	movwf	(??_tickHook_func+8)^0,c
  1499  000374  503D               	movf	(_last_time_blink_led_1+1)^0,w,c
  1500  000376  5804               	subwfb	(??_tickHook_func+1)^0,w,c
  1501  000378  6E0C               	movwf	(??_tickHook_func+9)^0,c
  1502  00037A  503E               	movf	(_last_time_blink_led_1+2)^0,w,c
  1503  00037C  5805               	subwfb	(??_tickHook_func+2)^0,w,c
  1504  00037E  6E0D               	movwf	(??_tickHook_func+10)^0,c
  1505  000380  503F               	movf	(_last_time_blink_led_1+3)^0,w,c
  1506  000382  5806               	subwfb	(??_tickHook_func+3)^0,w,c
  1507  000384  6E0E               	movwf	(??_tickHook_func+11)^0,c
  1508  000386  5040               	movf	(_last_time_blink_led_1+4)^0,w,c
  1509  000388  5807               	subwfb	(??_tickHook_func+4)^0,w,c
  1510  00038A  6E0F               	movwf	(??_tickHook_func+12)^0,c
  1511  00038C  5041               	movf	(_last_time_blink_led_1+5)^0,w,c
  1512  00038E  5808               	subwfb	(??_tickHook_func+5)^0,w,c
  1513  000390  6E10               	movwf	(??_tickHook_func+13)^0,c
  1514  000392  5042               	movf	(_last_time_blink_led_1+6)^0,w,c
  1515  000394  5809               	subwfb	(??_tickHook_func+6)^0,w,c
  1516  000396  6E11               	movwf	(??_tickHook_func+14)^0,c
  1517  000398  5043               	movf	(_last_time_blink_led_1+7)^0,w,c
  1518  00039A  580A               	subwfb	(??_tickHook_func+7)^0,w,c
  1519  00039C  6E12               	movwf	(??_tickHook_func+15)^0,c
  1520  00039E  5012               	movf	(??_tickHook_func+15)^0,w,c
  1521  0003A0  1011               	iorwf	(??_tickHook_func+14)^0,w,c
  1522  0003A2  1010               	iorwf	(??_tickHook_func+13)^0,w,c
  1523  0003A4  100F               	iorwf	(??_tickHook_func+12)^0,w,c
  1524  0003A6  100E               	iorwf	(??_tickHook_func+11)^0,w,c
  1525  0003A8  100D               	iorwf	(??_tickHook_func+10)^0,w,c
  1526  0003AA  100C               	iorwf	(??_tickHook_func+9)^0,w,c
  1527  0003AC  E109               	bnz	i2u23_40
  1528  0003AE  0E0A               	movlw	10
  1529  0003B0  5C0B               	subwf	(??_tickHook_func+8)^0,w,c
  1530  0003B2  A0D8               	btfss	status,0,c
  1531  0003B4  EFDE  F001         	goto	i2u23_41
  1532  0003B8  EFE0  F001         	goto	i2u23_40
  1533  0003BC                     i2u23_41:
  1534  0003BC  EF07  F002         	goto	i2l43
  1535  0003C0                     i2u23_40:
  1536  0003C0                     
  1537                           ;src/main.c: 43:     {;src/main.c: 44:         LATB = (PORTB ^ (1 << 1));;
  1538  0003C0  5081               	movf	129,w,c	;volatile
  1539  0003C2  0A02               	xorlw	2
  1540  0003C4  6E8A               	movwf	138,c	;volatile
  1541  0003C6                     
  1542                           ;src/main.c: 45:         last_time_blink_led_1 = *timer_value;
  1543  0003C6  C001  FFD9         	movff	tickHook_func@timer_value,fsr2l
  1544  0003CA  C002  FFDA         	movff	tickHook_func@timer_value+1,fsr2h
  1545  0003CE  CFDE F003          	movff	postinc2,??_tickHook_func
  1546  0003D2  CFDE F004          	movff	postinc2,??_tickHook_func+1
  1547  0003D6  CFDE F005          	movff	postinc2,??_tickHook_func+2
  1548  0003DA  CFDE F006          	movff	postinc2,??_tickHook_func+3
  1549  0003DE  CFDE F007          	movff	postinc2,??_tickHook_func+4
  1550  0003E2  CFDE F008          	movff	postinc2,??_tickHook_func+5
  1551  0003E6  CFDE F009          	movff	postinc2,??_tickHook_func+6
  1552  0003EA  CFDE F00A          	movff	postinc2,??_tickHook_func+7
  1553  0003EE  C003  F03C         	movff	??_tickHook_func,_last_time_blink_led_1
  1554  0003F2  C004  F03D         	movff	??_tickHook_func+1,_last_time_blink_led_1+1
  1555  0003F6  C005  F03E         	movff	??_tickHook_func+2,_last_time_blink_led_1+2
  1556  0003FA  C006  F03F         	movff	??_tickHook_func+3,_last_time_blink_led_1+3
  1557  0003FE  C007  F040         	movff	??_tickHook_func+4,_last_time_blink_led_1+4
  1558  000402  C008  F041         	movff	??_tickHook_func+5,_last_time_blink_led_1+5
  1559  000406  C009  F042         	movff	??_tickHook_func+6,_last_time_blink_led_1+6
  1560  00040A  C00A  F043         	movff	??_tickHook_func+7,_last_time_blink_led_1+7
  1561  00040E                     i2l43:
  1562  00040E  0012               	return		;funcret
  1563  000410                     __end_of_tickHook_func:
  1564                           	callstack 0
  1565                           
  1566 ;; *************** function _Serial_Receive *****************
  1567 ;; Defined at:
  1568 ;;		line 79 in file "src/pic18f4520/serial/serial.c"
  1569 ;; Parameters:    Size  Location     Type
  1570 ;;		None
  1571 ;; Auto vars:     Size  Location     Type
  1572 ;;		None
  1573 ;; Return value:  Size  Location     Type
  1574 ;;                  1    wreg      unsigned char 
  1575 ;; Registers used:
  1576 ;;		wreg, status,2
  1577 ;; Tracked objects:
  1578 ;;		On entry : 0/0
  1579 ;;		On exit  : 0/0
  1580 ;;		Unchanged: 0/0
  1581 ;; Data sizes:     COMRAM   BANK0   BANK1   BANK2   BANK3   BANK4   BANK5
  1582 ;;      Params:         0       0       0       0       0       0       0
  1583 ;;      Locals:         0       0       0       0       0       0       0
  1584 ;;      Temps:          0       0       0       0       0       0       0
  1585 ;;      Totals:         0       0       0       0       0       0       0
  1586 ;;Total ram usage:        0 bytes
  1587 ;; Hardware stack levels used: 1
  1588 ;; This function calls:
  1589 ;;		Nothing
  1590 ;; This function is called by:
  1591 ;;		_TASK_Manager
  1592 ;; This function uses a non-reentrant model
  1593 ;;
  1594                           
  1595                           	psect	text10
  1596  000740                     __ptext10:
  1597                           	callstack 0
  1598  000740                     _Serial_Receive:
  1599                           	callstack 27
  1600  000740                     
  1601                           ;src/pic18f4520/serial/serial.c: 81:     return RCREG;
  1602  000740  50AE               	movf	174,w,c	;volatile
  1603  000742  0012               	return		;funcret
  1604  000744                     __end_of_Serial_Receive:
  1605                           	callstack 0
  1606  0000                     
  1607                           	psect	text11
  1608  000000                     __ptext11:
  1609                           	callstack 0
  1610  000000                     
  1611                           	psect	rparam
  1612  0000                     
  1613                           	psect	temp
  1614  000063                     btemp:
  1615                           	callstack 0
  1616  000063                     	ds	1
  1617  0000                     int$flags	set	btemp
  1618  0000                     wtemp8	set	btemp+1
  1619  0000                     ttemp5	set	btemp+1
  1620  0000                     ttemp6	set	btemp+4
  1621  0000                     ttemp7	set	btemp+8
  1622                           
  1623                           	psect	idloc
  1624                           
  1625                           ;Config register IDLOC0 @ 0x200000
  1626                           ;	unspecified, using default values
  1627  200000                     	org	2097152
  1628  200000  FF                 	db	255
  1629                           
  1630                           ;Config register IDLOC1 @ 0x200001
  1631                           ;	unspecified, using default values
  1632  200001                     	org	2097153
  1633  200001  FF                 	db	255
  1634                           
  1635                           ;Config register IDLOC2 @ 0x200002
  1636                           ;	unspecified, using default values
  1637  200002                     	org	2097154
  1638  200002  FF                 	db	255
  1639                           
  1640                           ;Config register IDLOC3 @ 0x200003
  1641                           ;	unspecified, using default values
  1642  200003                     	org	2097155
  1643  200003  FF                 	db	255
  1644                           
  1645                           ;Config register IDLOC4 @ 0x200004
  1646                           ;	unspecified, using default values
  1647  200004                     	org	2097156
  1648  200004  FF                 	db	255
  1649                           
  1650                           ;Config register IDLOC5 @ 0x200005
  1651                           ;	unspecified, using default values
  1652  200005                     	org	2097157
  1653  200005  FF                 	db	255
  1654                           
  1655                           ;Config register IDLOC6 @ 0x200006
  1656                           ;	unspecified, using default values
  1657  200006                     	org	2097158
  1658  200006  FF                 	db	255
  1659                           
  1660                           ;Config register IDLOC7 @ 0x200007
  1661                           ;	unspecified, using default values
  1662  200007                     	org	2097159
  1663  200007  FF                 	db	255
  1664                           
  1665                           	psect	config
  1666                           
  1667                           ; Padding undefined space
  1668  300000                     	org	3145728
  1669  300000  FF                 	db	255
  1670                           
  1671                           ;Config register CONFIG1H @ 0x300001
  1672                           ;	Oscillator Selection bits
  1673                           ;	OSC = HS, HS oscillator
  1674                           ;	Fail-Safe Clock Monitor Enable bit
  1675                           ;	FCMEN = OFF, Fail-Safe Clock Monitor disabled
  1676                           ;	Internal/External Oscillator Switchover bit
  1677                           ;	IESO = OFF, Oscillator Switchover mode disabled
  1678  300001                     	org	3145729
  1679  300001  02                 	db	2
  1680                           
  1681                           ;Config register CONFIG2L @ 0x300002
  1682                           ;	Power-up Timer Enable bit
  1683                           ;	PWRT = OFF, PWRT disabled
  1684                           ;	Brown-out Reset Enable bits
  1685                           ;	BOREN = SBORDIS, Brown-out Reset enabled in hardware only (SBOREN is disabled)
  1686                           ;	Brown Out Reset Voltage bits
  1687                           ;	BORV = 3, Minimum setting
  1688  300002                     	org	3145730
  1689  300002  1F                 	db	31
  1690                           
  1691                           ;Config register CONFIG2H @ 0x300003
  1692                           ;	Watchdog Timer Enable bit
  1693                           ;	WDT = OFF, WDT disabled (control is placed on the SWDTEN bit)
  1694                           ;	Watchdog Timer Postscale Select bits
  1695                           ;	WDTPS = 32768, 1:32768
  1696  300003                     	org	3145731
  1697  300003  1E                 	db	30
  1698                           
  1699                           ; Padding undefined space
  1700  300004                     	org	3145732
  1701  300004  FF                 	db	255
  1702                           
  1703                           ;Config register CONFIG3H @ 0x300005
  1704                           ;	CCP2 MUX bit
  1705                           ;	CCP2MX = PORTC, CCP2 input/output is multiplexed with RC1
  1706                           ;	PORTB A/D Enable bit
  1707                           ;	PBADEN = OFF, PORTB<4:0> pins are configured as digital I/O on Reset
  1708                           ;	Low-Power Timer1 Oscillator Enable bit
  1709                           ;	LPT1OSC = OFF, Timer1 configured for higher power operation
  1710                           ;	MCLR Pin Enable bit
  1711                           ;	MCLRE = OFF, RE3 input pin enabled; MCLR disabled
  1712  300005                     	org	3145733
  1713  300005  01                 	db	1
  1714                           
  1715                           ;Config register CONFIG4L @ 0x300006
  1716                           ;	Stack Full/Underflow Reset Enable bit
  1717                           ;	STVREN = ON, Stack full/underflow will cause Reset
  1718                           ;	Single-Supply ICSP Enable bit
  1719                           ;	LVP = OFF, Single-Supply ICSP disabled
  1720                           ;	Extended Instruction Set Enable bit
  1721                           ;	XINST = OFF, Instruction set extension and Indexed Addressing mode disabled (Legacy mo
      +                          de)
  1722                           ;	Background Debugger Enable bit
  1723                           ;	DEBUG = 0x1, unprogrammed default
  1724  300006                     	org	3145734
  1725  300006  81                 	db	129
  1726                           
  1727                           ; Padding undefined space
  1728  300007                     	org	3145735
  1729  300007  FF                 	db	255
  1730                           
  1731                           ;Config register CONFIG5L @ 0x300008
  1732                           ;	Code Protection bit
  1733                           ;	CP0 = OFF, Block 0 (000800-001FFFh) not code-protected
  1734                           ;	Code Protection bit
  1735                           ;	CP1 = OFF, Block 1 (002000-003FFFh) not code-protected
  1736                           ;	Code Protection bit
  1737                           ;	CP2 = OFF, Block 2 (004000-005FFFh) not code-protected
  1738                           ;	Code Protection bit
  1739                           ;	CP3 = OFF, Block 3 (006000-007FFFh) not code-protected
  1740  300008                     	org	3145736
  1741  300008  0F                 	db	15
  1742                           
  1743                           ;Config register CONFIG5H @ 0x300009
  1744                           ;	Boot Block Code Protection bit
  1745                           ;	CPB = OFF, Boot block (000000-0007FFh) not code-protected
  1746                           ;	Data EEPROM Code Protection bit
  1747                           ;	CPD = OFF, Data EEPROM not code-protected
  1748  300009                     	org	3145737
  1749  300009  C0                 	db	192
  1750                           
  1751                           ;Config register CONFIG6L @ 0x30000A
  1752                           ;	Write Protection bit
  1753                           ;	WRT0 = OFF, Block 0 (000800-001FFFh) not write-protected
  1754                           ;	Write Protection bit
  1755                           ;	WRT1 = OFF, Block 1 (002000-003FFFh) not write-protected
  1756                           ;	Write Protection bit
  1757                           ;	WRT2 = OFF, Block 2 (004000-005FFFh) not write-protected
  1758                           ;	Write Protection bit
  1759                           ;	WRT3 = OFF, Block 3 (006000-007FFFh) not write-protected
  1760  30000A                     	org	3145738
  1761  30000A  0F                 	db	15
  1762                           
  1763                           ;Config register CONFIG6H @ 0x30000B
  1764                           ;	Configuration Register Write Protection bit
  1765                           ;	WRTC = OFF, Configuration registers (300000-3000FFh) not write-protected
  1766                           ;	Boot Block Write Protection bit
  1767                           ;	WRTB = OFF, Boot block (000000-0007FFh) not write-protected
  1768                           ;	Data EEPROM Write Protection bit
  1769                           ;	WRTD = OFF, Data EEPROM not write-protected
  1770  30000B                     	org	3145739
  1771  30000B  E0                 	db	224
  1772                           
  1773                           ;Config register CONFIG7L @ 0x30000C
  1774                           ;	Table Read Protection bit
  1775                           ;	EBTR0 = OFF, Block 0 (000800-001FFFh) not protected from table reads executed in other
      +                           blocks
  1776                           ;	Table Read Protection bit
  1777                           ;	EBTR1 = OFF, Block 1 (002000-003FFFh) not protected from table reads executed in other
      +                           blocks
  1778                           ;	Table Read Protection bit
  1779                           ;	EBTR2 = OFF, Block 2 (004000-005FFFh) not protected from table reads executed in other
      +                           blocks
  1780                           ;	Table Read Protection bit
  1781                           ;	EBTR3 = OFF, Block 3 (006000-007FFFh) not protected from table reads executed in other
      +                           blocks
  1782  30000C                     	org	3145740
  1783  30000C  0F                 	db	15
  1784                           
  1785                           ;Config register CONFIG7H @ 0x30000D
  1786                           ;	Boot Block Table Read Protection bit
  1787                           ;	EBTRB = OFF, Boot block (000000-0007FFh) not protected from table reads executed in ot
      +                          her blocks
  1788  30000D                     	org	3145741
  1789  30000D  40                 	db	64
  1790                           tosu	equ	0xFFF
  1791                           tosh	equ	0xFFE
  1792                           tosl	equ	0xFFD
  1793                           stkptr	equ	0xFFC
  1794                           pclatu	equ	0xFFB
  1795                           pclath	equ	0xFFA
  1796                           pcl	equ	0xFF9
  1797                           tblptru	equ	0xFF8
  1798                           tblptrh	equ	0xFF7
  1799                           tblptrl	equ	0xFF6
  1800                           tablat	equ	0xFF5
  1801                           prodh	equ	0xFF4
  1802                           prodl	equ	0xFF3
  1803                           indf0	equ	0xFEF
  1804                           postinc0	equ	0xFEE
  1805                           postdec0	equ	0xFED
  1806                           preinc0	equ	0xFEC
  1807                           plusw0	equ	0xFEB
  1808                           fsr0h	equ	0xFEA
  1809                           fsr0l	equ	0xFE9
  1810                           wreg	equ	0xFE8
  1811                           indf1	equ	0xFE7
  1812                           postinc1	equ	0xFE6
  1813                           postdec1	equ	0xFE5
  1814                           preinc1	equ	0xFE4
  1815                           plusw1	equ	0xFE3
  1816                           fsr1h	equ	0xFE2
  1817                           fsr1l	equ	0xFE1
  1818                           bsr	equ	0xFE0
  1819                           indf2	equ	0xFDF
  1820                           postinc2	equ	0xFDE
  1821                           postdec2	equ	0xFDD
  1822                           preinc2	equ	0xFDC
  1823                           plusw2	equ	0xFDB
  1824                           fsr2h	equ	0xFDA
  1825                           fsr2l	equ	0xFD9
  1826                           status	equ	0xFD8

Data Sizes:
    Strings     0
    Constant    0
    Data        12
    BSS         43
    Persistent  0
    Stack       0

Auto Spaces:
    Space          Size  Autos    Used
    COMRAM          126     51      98
    BANK0           128      0       0
    BANK1           256      0       0
    BANK2           256      0       0
    BANK3           256      0       0
    BANK4           256      0       0
    BANK5           256      0       0

Pointer List with Targets:

    Absolute function$0	PTR unsigned long long  size(2) Largest target is 8
		 -> global_timer_value@timer$F182(COMRAM[8]), 

    tickFunc$0	PTR unsigned long long  size(2) Largest target is 8
		 -> global_timer_value@timer$F182(COMRAM[8]), 

    tickHook_func_prt$0	PTR unsigned long long  size(2) Largest target is 8
		 -> global_timer_value@timer$F182(COMRAM[8]), 

    Peripheral_Controller@args	PTR void  size(2) Largest target is 0
		 -> NULL(NULL[0]), 

    tickHook_Execute@global_timer_value	PTR unsigned long long  size(2) Largest target is 8
		 -> global_timer_value@timer$F182(COMRAM[8]), 

    Timer0_SetTickHook@tickFunc	PTR FTN(PTR unsigned long long ,)void  size(2) Largest target is 1
		 -> tickHook_func(), 

    tickHook_func_prt	PTR FTN(PTR unsigned long long ,)void  size(2) Largest target is 1
		 -> Absolute function(), tickHook_func(), 

    Timer0_Config@timerConfig	PTR struct . size(2) Largest target is 5
		 -> timerConfig(COMRAM[5]), 

    Serial_1_Config@serialConfig	PTR struct . size(2) Largest target is 7
		 -> serialConfig(COMRAM[7]), 

    tickHook_func@timer_value	PTR unsigned long long  size(2) Largest target is 8
		 -> global_timer_value@timer$F182(COMRAM[8]), 


Critical Paths under _main in COMRAM

    _main->_Serial_1_Config
    _Serial_1_Config->___aldiv

Critical Paths under _TASK_Manager in COMRAM

    _TASK_Manager->_tickHook_Execute
    _tickHook_Execute->_tickHook_func

Critical Paths under _main in BANK0

    None.

Critical Paths under _TASK_Manager in BANK0

    None.

Critical Paths under _main in BANK1

    None.

Critical Paths under _TASK_Manager in BANK1

    None.

Critical Paths under _main in BANK2

    None.

Critical Paths under _TASK_Manager in BANK2

    None.

Critical Paths under _main in BANK3

    None.

Critical Paths under _TASK_Manager in BANK3

    None.

Critical Paths under _main in BANK4

    None.

Critical Paths under _TASK_Manager in BANK4

    None.

Critical Paths under _main in BANK5

    None.

Critical Paths under _TASK_Manager in BANK5

    None.

Call Graph Tables:

 ---------------------------------------------------------------------------------
 (Depth) Function   	        Calls       Base Space   Used Autos Params    Refs
 ---------------------------------------------------------------------------------
 (0) _main                                                 0     0      0    1912
             _Interrupt_GlobalEnable
              _Peripheral_Controller
                    _Serial_1_Config
                      _Timer0_Config
                 _Timer0_SetTickHook
 ---------------------------------------------------------------------------------
 (1) _Timer0_SetTickHook                                   2     0      2      98
                                             24 COMRAM     2     0      2
 ---------------------------------------------------------------------------------
 (1) _Timer0_Config                                        3     1      2     164
                                             24 COMRAM     3     1      2
 ---------------------------------------------------------------------------------
 (1) _Serial_1_Config                                     13    11      2    1574
                                             38 COMRAM    13    11      2
                            ___aldiv
 ---------------------------------------------------------------------------------
 (2) ___aldiv                                             14     6      8    1050
                                             24 COMRAM    14     6      8
 ---------------------------------------------------------------------------------
 (1) _Peripheral_Controller                                2     0      2      76
                                             24 COMRAM     2     0      2
 ---------------------------------------------------------------------------------
 (1) _Interrupt_GlobalEnable                               0     0      0       0
 ---------------------------------------------------------------------------------
 Estimated maximum stack depth 2
 ---------------------------------------------------------------------------------
 (Depth) Function   	        Calls       Base Space   Used Autos Params    Refs
 ---------------------------------------------------------------------------------
 (3) _TASK_Manager                                         4     4      0     239
                                             20 COMRAM     4     4      0
                     _Serial_Receive
                   _tickHook_Execute
 ---------------------------------------------------------------------------------
 (4) _tickHook_Execute                                     2     0      2     239
                                             18 COMRAM     2     0      2
                   Absolute function *
                      _tickHook_func *
 ---------------------------------------------------------------------------------
 (5) _tickHook_func                                       18    16      2     141
                                              0 COMRAM    18    16      2
 ---------------------------------------------------------------------------------
 (5) Absolute function(Fake)                               2     0      2       0
 ---------------------------------------------------------------------------------
 (4) _Serial_Receive                                       0     0      0       0
 ---------------------------------------------------------------------------------
 Estimated maximum stack depth 5
 ---------------------------------------------------------------------------------

 Call Graph Graphs:

 _main (ROOT)
   _Interrupt_GlobalEnable
   _Peripheral_Controller
   _Serial_1_Config
     ___aldiv
   _Timer0_Config
   _Timer0_SetTickHook

 _TASK_Manager (ROOT)
   _Serial_Receive
   _tickHook_Execute
     Absolute function(Fake) *
     _tickHook_func *

 Address spaces:
Name               Size   Autos  Total    Cost      Usage
BIGRAM             5FF      0       0      17        0.0%
EEDATA             100      0       0       0        0.0%
BITBANK5           100      0       0      16        0.0%
BANK5              100      0       0      14        0.0%
BITBANK4           100      0       0      12        0.0%
BANK4              100      0       0      13        0.0%
BITBANK3           100      0       0      10        0.0%
BANK3              100      0       0      11        0.0%
BITBANK2           100      0       0       8        0.0%
BANK2              100      0       0       9        0.0%
BITBANK1           100      0       0       6        0.0%
BANK1              100      0       0       7        0.0%
BITBANK0            80      0       0       4        0.0%
BANK0               80      0       0       5        0.0%
BITCOMRAM           7E      0       0       0        0.0%
COMRAM              7E     33      62       1       77.8%
BITSFR               0      0       0     200        0.0%
SFR                  0      0       0     200        0.0%
STACK                0      0       0       2        0.0%
NULL                 0      0       0       0        0.0%
ABS                  0      0      62      15        0.0%
DATA                 0      0      62       3        0.0%
CODE                 0      0       0       0        0.0%


Microchip Technology PIC18 Macro Assembler V2.32 build 20210201212658 
Symbol Table                                                                                   Sun Jul 18 00:34:58 2021

                                l62 0696                                  l63 0696  
                                l81 06F0                                  l83 06F6  
                                l75 06DE                                  l93 073E  
                                l77 06E4                                  l86 06FC  
                               l112 0216                                 l114 0272  
                               l115 0276                                 l116 027C  
                               l141 0660                                 l232 051A  
                               l144 0736                                 l902 0738  
                               u240 0422                                 u241 041E  
                               u250 0444                                 u251 0440  
                               u315 0040                                 u260 047E  
                               u340 020A                                 u261 047A  
                               u341 0206                                 u325 0096  
                               u270 04A0                                 u350 0228  
                               u271 049C                                 u351 0224  
                               u335 00EC                                 u280 04C8  
                               u360 026A                                 u281 04C4  
                               u361 0266                                 u290 04FA  
                               u370 0638                                 u291 04F6  
                               u371 0634                                 tosl 000FFD  
                               wreg 000FE8      __end_of_Interrupt_GlobalEnable 0740  
                              l1010 0414                                l1020 0454  
                              l1012 0422                                l1100 024E  
                              l1030 0492                                l1022 0458  
                              l1014 0432                                l1102 026A  
                              l1110 0652                                l1040 04DA  
                              l1032 04A0                                l1024 0468  
                              l1016 0436                                l1008 0410  
                              l1112 0654                                l1104 05C4  
                              l1042 04E4                                l1034 04AA  
                              l1026 047E                                l1018 0444  
                              l1114 0656                                l1106 05C6  
                              l1036 04C8                                l1028 0486  
                              l1044 04EA                                l1116 065E  
                              l1108 0638                                l1054 06D8  
                              l1046 04FA                                l1038 04D8  
                              l1070 0012                                l1118 072E  
                              l1150 0662                                l1064 06EA  
                              l1048 050A                                l1080 01F0  
                              l1072 0114                                l1152 066E  
                              l1090 0212                                l1082 01F2  
                              l1074 015C                                l1154 0672  
                              l1092 0228                                l1084 01F4  
                              l1076 01A4                                l1156 067E  
                              l1094 022C                                l1086 01F8  
                              l1078 01EC                                l1158 068A  
                              l1096 0230                                l1088 020A  
                              l1098 024C                                _LATB 000F8A  
                              i2l41 0346                                i2l43 040E  
                              i2l57 05B0                                _TMR0 000FD6  
                              _TRMT 007D61                                _main 0662  
                              fsr2h 000FDA                                indf2 000FDF  
                              fsr1l 000FE1                                fsr2l 000FD9  
                              btemp 0063                                prodh 000FF4  
                              prodl 000FF3                                start 000E  
                      ___param_bank 000000                     __end_of___aldiv 051C  
                             ?_main 0001                               i2l125 0742  
                             i2l147 0720                               i2l882 0740  
                             i2l998 027E                               _RCREG 000FAE  
                             _SPBRG 000FAF                               _PORTB 000F81  
                             _TRISB 000F93                               _TXREG 000FAD  
                             pclath 000FFA                               tablat 000FF5  
             __end_of_Timer0_Config 0662                      _Serial_Receive 0740  
                             ttemp5 0064                               ttemp6 0067  
                             ttemp7 006B                               status 000FD8  
                             wtemp8 0064                     __initialization 069E  
                      __end_of_main 069E                     _Serial_1_Config 0012  
             __end_of_tickHook_func 0410                              ??_main 0034  
       Serial_1_Config@serialConfig 0027                       __activetblptr 000002  
        Serial_1_Config@error_8HIGH 0032              __end_of_Serial_Receive 0744  
                            i2l1000 02F8                              i2l1002 02FE  
                            i2l1004 03C0                              i2l1006 03C6  
                            i2l1120 052E                              i2l1122 053C  
                            i2l1130 0566                              i2l1052 06FE  
          __end_of_tickHook_Execute 0722                              i2l1140 0596  
                            i2l1132 0574                              i2l1124 0550  
                            i2l1134 057A                              i2l1126 055C  
                            i2l1136 058C                              i2l1128 0564  
                            i2l1146 05A8                              i2l1148 05AE  
                         ??___aldiv 0021             ??_Peripheral_Controller 001B  
         Peripheral_Controller@args 0019                              clear_0 06C4  
           Serial_1_Config@brg8HIGH 0030                              isa$std 000001  
                      __pdataCOMRAM 0057                              tblptrh 000FF7  
                            tblptrl 000FF6                              tblptru 000FF8  
                   ?_Serial_Receive 0001                          __accesstop 0080  
           __end_of__initialization 06CA                       ___rparam_used 000001  
           __end_of_Serial_1_Config 027E         __size_of_Timer0_SetTickHook 000A  
                    __pcstackCOMRAM 0001          Timer0_SetTickHook@tickFunc 0019  
                     ?_TASK_Manager 0001               _last_time_blink_led_0 0044  
             _last_time_blink_led_1 003C                             i2u22_40 02F8  
                           i2u22_41 02F4                             i2u23_40 03C0  
                           i2u30_48 070C                             i2u23_41 03BC  
                           i2u30_49 0720                             i2u40_40 058C  
                           i2u40_41 0588                             i2u41_40 05A8  
                           i2u41_41 05A4                             i2u38_40 053C  
                           i2u38_41 0538                             i2u39_40 0574  
                           i2u39_41 0570                      ??_TASK_Manager 0015  
                           __Hparam 0000                    ?_Serial_1_Config 0027  
                           __Lparam 0000                             ___aldiv 0410  
                           __pcinit 069E                             __ramtop 0600  
                           __ptext0 0662                             __ptext1 072E  
                           __ptext2 05C4                             __ptext3 0012  
                           __ptext4 0410                             __ptext5 06D8  
                           __ptext6 0738                             __ptext8 06FE  
                           __ptext9 027E                           _T0CONbits 000FD5  
          Serial_1_Config@brg16HIGH 0031                    ___aldiv@dividend 0019  
                    __pintcode_body 051C                end_of_initialization 06CA  
                 ?_tickHook_Execute 0013                       __Lmediumconst 0000  
                           int_func 051C                  ??_tickHook_Execute 0015  
                         _RCSTAbits 000FAB                    ___aldiv@quotient 0023  
                           postdec1 000FE5                             postinc0 000FEE  
                           postinc2 000FDE      __size_of_Peripheral_Controller 0026  
     __end_of_Peripheral_Controller 06FE              __size_of_Timer0_Config 009E  
          ??_Interrupt_GlobalEnable 0019                    ??_Serial_Receive 0001  
          Serial_1_Config@error_min 0033                           _TXSTAbits 000FAC  
            __size_of_tickHook_func 0192                    fp__tickHook_func 0000  
                       _BAUDCONbits 000FB8                       __pidataCOMRAM 0722  
              __end_of_TASK_Manager 05C4                 start_initialization 069E  
          Timer0_Config@timerConfig 0019           Serial_1_Config@error_8LOW 002D  
                     _Timer0_Config 05C4          __end_of_Timer0_SetTickHook 0738  
            Serial_1_Config@brg8LOW 002F                       _tickHook_func 027E  
   __size_of_Interrupt_GlobalEnable 0008                         __pbssCOMRAM 0034  
                    ?_Timer0_Config 0019                           __pintcode 0008  
                          ?___aldiv 0019                      ?_tickHook_func 0001  
     _global_timer_value@timer$F182 004F       _global_timer_value@timer$F717 0034  
                   ___aldiv@divisor 001D                     ___aldiv@counter 0021  
            _Interrupt_GlobalEnable 0738                            _PIE1bits 000F9D  
tickHook_Execute@global_timer_value 0013                            _PIR1bits 000F9E  
                          _RCONbits 000FD0               __size_of_TASK_Manager 05BC  
         __size_of_tickHook_Execute 0024            __size_of_Serial_1_Config 026C  
                   ??_Timer0_Config 001B                         _INTCON2bits 000FF1  
                         copy_data0 06B2                        _TASK_Manager 0008  
                          __Hrparam 0000                            __Lrparam 0000  
                  __size_of___aldiv 010C                     ??_tickHook_func 0003  
             _Peripheral_Controller 06D8                            __ptext10 0740  
                          __ptext11 0000                       __size_of_main 003C  
                      _serialConfig 0057                            isa$xinst 000000  
                          int$flags 0063                  _Timer0_SetTickHook 072E  
                        _INTCONbits 000FF2                 ?_Timer0_SetTickHook 0019  
                 ??_Serial_1_Config 0029                            intlevel2 0000  
       Serial_1_Config@error_16HIGH 002E                _serial_byte_received 004E  
           __size_of_Serial_Receive 0004                ??_Timer0_SetTickHook 001B  
                  _tickHook_Execute 06FE              ?_Peripheral_Controller 0019  
                       _timerConfig 005E                   _tickHook_func_prt 004C  
                      ___aldiv@sign 0022            tickHook_func@timer_value 0001  
           ?_Interrupt_GlobalEnable 0001  
